
out.o:     file format elf64-x86-64
out.o
architecture: i386:x86-64, flags 0x00000011:
HAS_RELOC, HAS_SYMS
start address 0x0000000000000000

Sections:
Idx Name          Size      VMA               LMA               File off  Algn
  0 .text         000029c6  0000000000000000  0000000000000000  00000040  2**4
                  CONTENTS, ALLOC, LOAD, RELOC, READONLY, CODE
  1 .data         00000403  0000000000000000  0000000000000000  00002a08  2**3
                  CONTENTS, ALLOC, LOAD, DATA
  2 .note.GNU-stack 00000000  0000000000000000  0000000000000000  00002e0b  2**0
                  CONTENTS, READONLY
SYMBOL TABLE:
0000000000000000 l    df *UND*	0000000000000000 main
0000000000000000 l    d  .text	0000000000000000 .text
0000000000000000 l    d  .data	0000000000000000 .data
0000000000000000 g     O .data	0000000000000008 io_STDIN
0000000000000008 g     O .data	0000000000000008 io_STDOUT
0000000000000010 g     O .data	0000000000000008 io_STDERR
0000000000000018 g     O .data	0000000000000008 io_SYS_READ
0000000000000020 g     O .data	0000000000000008 io_SYS_WRITE
0000000000000028 g     O .data	0000000000000008 io_NUM_BUF_SIZE
0000000000000030 g     O .data	0000000000000003 .str.6
0000000000000038 g     O .data	000000000000001d .str.7
0000000000000058 g     O .data	000000000000001b .str.8
0000000000000078 g     O .data	000000000000000f .str.9
0000000000000088 g     O .data	0000000000000026 .str.10
00000000000000b0 g     O .data	0000000000000012 .str.11
00000000000000c8 g     O .data	000000000000000b .str.12
00000000000000d8 g     O .data	0000000000000022 .str.13
0000000000000100 g     O .data	0000000000000014 .str.14
0000000000000118 g     O .data	0000000000000010 .str.15
0000000000000128 g     O .data	0000000000000027 .str.16
0000000000000150 g     O .data	0000000000000014 .str.17
0000000000000168 g     O .data	000000000000000e .str.18
0000000000000178 g     O .data	0000000000000027 .str.19
00000000000001a0 g     O .data	0000000000000014 .str.20
00000000000001b8 g     O .data	000000000000000e .str.21
00000000000001c8 g     O .data	000000000000002d .str.22
00000000000001f8 g     O .data	000000000000000f .str.23
0000000000000208 g     O .data	000000000000000b .str.24
0000000000000218 g     O .data	0000000000000022 .str.25
0000000000000240 g     O .data	0000000000000015 .str.26
0000000000000258 g     O .data	000000000000000c .str.27
0000000000000268 g     O .data	0000000000000022 .str.28
0000000000000290 g     O .data	0000000000000012 .str.29
00000000000002a8 g     O .data	000000000000000d .str.30
00000000000002b8 g     O .data	0000000000000008 .str.31
00000000000002c0 g     O .data	0000000000000029 .str.32
00000000000002f0 g     O .data	0000000000000013 .str.33
0000000000000308 g     O .data	000000000000000d .str.34
0000000000000318 g     O .data	0000000000000027 .str.35
0000000000000340 g     O .data	0000000000000015 .str.36
0000000000000358 g     O .data	0000000000000020 .str.37
0000000000000378 g     O .data	0000000000000005 .str.38
0000000000000380 g     O .data	0000000000000021 .str.39
00000000000003a8 g     O .data	0000000000000027 .str.40
00000000000003d0 g     O .data	0000000000000018 .str.41
00000000000003e8 g     O .data	0000000000000001 .str.42
00000000000003f0 g     O .data	0000000000000013 .str.43
0000000000000000 g     F .text	00000000000000fa io_write
00000000000000fa g     F .text	00000000000000fa io_read
00000000000001f4 g     F .text	0000000000000105 io_write_byte
00000000000002f9 g     F .text	0000000000000126 io_write_str
000000000000041f g     F .text	0000000000000071 io_print
0000000000000490 g     F .text	00000000000000b1 io_println
0000000000000541 g     F .text	0000000000000322 io_reverse_in_place
0000000000000863 g     F .text	000000000000063e io_int_to_str
0000000000000ea1 g     F .text	000000000000041d io_uint_to_str
00000000000012be g     F .text	0000000000000e0a io_printf
00000000000020c8 g     F .text	000000000000035e io_read_line
0000000000002426 g     F .text	00000000000005a0 main



Disassembly of section .text:

0000000000000000 <io_write>:
       0:	55                   	push   %rbp
       1:	48 89 e5             	mov    %rsp,%rbp
       4:	48 81 ec 80 00 00 00 	sub    $0x80,%rsp
       b:	89 bd f8 ff ff ff    	mov    %edi,-0x8(%rbp)
      11:	48 89 b5 f0 ff ff ff 	mov    %rsi,-0x10(%rbp)
      18:	48 89 95 e8 ff ff ff 	mov    %rdx,-0x18(%rbp)
      1f:	48 8d 85 98 ff ff ff 	lea    -0x68(%rbp),%rax
      26:	48 89 85 e0 ff ff ff 	mov    %rax,-0x20(%rbp)
      2d:	8b 85 f8 ff ff ff    	mov    -0x8(%rbp),%eax
      33:	48 8b 8d e0 ff ff ff 	mov    -0x20(%rbp),%rcx
      3a:	89 01                	mov    %eax,(%rcx)
      3c:	48 8d 85 90 ff ff ff 	lea    -0x70(%rbp),%rax
      43:	48 89 85 d8 ff ff ff 	mov    %rax,-0x28(%rbp)
      4a:	48 8b 85 f0 ff ff ff 	mov    -0x10(%rbp),%rax
      51:	48 8b 8d d8 ff ff ff 	mov    -0x28(%rbp),%rcx
      58:	48 89 01             	mov    %rax,(%rcx)
      5b:	48 8d 85 88 ff ff ff 	lea    -0x78(%rbp),%rax
      62:	48 89 85 d0 ff ff ff 	mov    %rax,-0x30(%rbp)
      69:	48 8b 85 e8 ff ff ff 	mov    -0x18(%rbp),%rax
      70:	48 8b 8d d0 ff ff ff 	mov    -0x30(%rbp),%rcx
      77:	48 89 01             	mov    %rax,(%rcx)
      7a:	48 8d 05 00 00 00 00 	lea    0x0(%rip),%rax        # 81 <io_write+0x81>
			7d: R_X86_64_PC32	io_SYS_WRITE-0x4
      81:	48 8b 00             	mov    (%rax),%rax
      84:	48 89 85 c8 ff ff ff 	mov    %rax,-0x38(%rbp)
      8b:	48 8b 85 e0 ff ff ff 	mov    -0x20(%rbp),%rax
      92:	8b 00                	mov    (%rax),%eax
      94:	89 85 c0 ff ff ff    	mov    %eax,-0x40(%rbp)
      9a:	8b 85 c0 ff ff ff    	mov    -0x40(%rbp),%eax
      a0:	48 63 c0             	movslq %eax,%rax
      a3:	48 89 85 b8 ff ff ff 	mov    %rax,-0x48(%rbp)
      aa:	48 8b 85 d8 ff ff ff 	mov    -0x28(%rbp),%rax
      b1:	48 8b 00             	mov    (%rax),%rax
      b4:	48 89 85 b0 ff ff ff 	mov    %rax,-0x50(%rbp)
      bb:	48 8b 85 d0 ff ff ff 	mov    -0x30(%rbp),%rax
      c2:	48 8b 00             	mov    (%rax),%rax
      c5:	48 89 85 a8 ff ff ff 	mov    %rax,-0x58(%rbp)
      cc:	48 8b 85 c8 ff ff ff 	mov    -0x38(%rbp),%rax
      d3:	48 8b bd b8 ff ff ff 	mov    -0x48(%rbp),%rdi
      da:	48 8b b5 b0 ff ff ff 	mov    -0x50(%rbp),%rsi
      e1:	48 8b 95 a8 ff ff ff 	mov    -0x58(%rbp),%rdx
      e8:	0f 05                	syscall
      ea:	48 89 85 a0 ff ff ff 	mov    %rax,-0x60(%rbp)
      f1:	48 8b 85 a0 ff ff ff 	mov    -0x60(%rbp),%rax
      f8:	c9                   	leave
      f9:	c3                   	ret

00000000000000fa <io_read>:
      fa:	55                   	push   %rbp
      fb:	48 89 e5             	mov    %rsp,%rbp
      fe:	48 81 ec 80 00 00 00 	sub    $0x80,%rsp
     105:	89 bd f8 ff ff ff    	mov    %edi,-0x8(%rbp)
     10b:	48 89 b5 f0 ff ff ff 	mov    %rsi,-0x10(%rbp)
     112:	48 89 95 e8 ff ff ff 	mov    %rdx,-0x18(%rbp)
     119:	48 8d 85 98 ff ff ff 	lea    -0x68(%rbp),%rax
     120:	48 89 85 e0 ff ff ff 	mov    %rax,-0x20(%rbp)
     127:	8b 85 f8 ff ff ff    	mov    -0x8(%rbp),%eax
     12d:	48 8b 8d e0 ff ff ff 	mov    -0x20(%rbp),%rcx
     134:	89 01                	mov    %eax,(%rcx)
     136:	48 8d 85 90 ff ff ff 	lea    -0x70(%rbp),%rax
     13d:	48 89 85 d8 ff ff ff 	mov    %rax,-0x28(%rbp)
     144:	48 8b 85 f0 ff ff ff 	mov    -0x10(%rbp),%rax
     14b:	48 8b 8d d8 ff ff ff 	mov    -0x28(%rbp),%rcx
     152:	48 89 01             	mov    %rax,(%rcx)
     155:	48 8d 85 88 ff ff ff 	lea    -0x78(%rbp),%rax
     15c:	48 89 85 d0 ff ff ff 	mov    %rax,-0x30(%rbp)
     163:	48 8b 85 e8 ff ff ff 	mov    -0x18(%rbp),%rax
     16a:	48 8b 8d d0 ff ff ff 	mov    -0x30(%rbp),%rcx
     171:	48 89 01             	mov    %rax,(%rcx)
     174:	48 8d 05 00 00 00 00 	lea    0x0(%rip),%rax        # 17b <io_read+0x81>
			177: R_X86_64_PC32	io_SYS_READ-0x4
     17b:	48 8b 00             	mov    (%rax),%rax
     17e:	48 89 85 c8 ff ff ff 	mov    %rax,-0x38(%rbp)
     185:	48 8b 85 e0 ff ff ff 	mov    -0x20(%rbp),%rax
     18c:	8b 00                	mov    (%rax),%eax
     18e:	89 85 c0 ff ff ff    	mov    %eax,-0x40(%rbp)
     194:	8b 85 c0 ff ff ff    	mov    -0x40(%rbp),%eax
     19a:	48 63 c0             	movslq %eax,%rax
     19d:	48 89 85 b8 ff ff ff 	mov    %rax,-0x48(%rbp)
     1a4:	48 8b 85 d8 ff ff ff 	mov    -0x28(%rbp),%rax
     1ab:	48 8b 00             	mov    (%rax),%rax
     1ae:	48 89 85 b0 ff ff ff 	mov    %rax,-0x50(%rbp)
     1b5:	48 8b 85 d0 ff ff ff 	mov    -0x30(%rbp),%rax
     1bc:	48 8b 00             	mov    (%rax),%rax
     1bf:	48 89 85 a8 ff ff ff 	mov    %rax,-0x58(%rbp)
     1c6:	48 8b 85 c8 ff ff ff 	mov    -0x38(%rbp),%rax
     1cd:	48 8b bd b8 ff ff ff 	mov    -0x48(%rbp),%rdi
     1d4:	48 8b b5 b0 ff ff ff 	mov    -0x50(%rbp),%rsi
     1db:	48 8b 95 a8 ff ff ff 	mov    -0x58(%rbp),%rdx
     1e2:	0f 05                	syscall
     1e4:	48 89 85 a0 ff ff ff 	mov    %rax,-0x60(%rbp)
     1eb:	48 8b 85 a0 ff ff ff 	mov    -0x60(%rbp),%rax
     1f2:	c9                   	leave
     1f3:	c3                   	ret

00000000000001f4 <io_write_byte>:
     1f4:	55                   	push   %rbp
     1f5:	48 89 e5             	mov    %rsp,%rbp
     1f8:	48 81 ec 80 00 00 00 	sub    $0x80,%rsp
     1ff:	89 bd f8 ff ff ff    	mov    %edi,-0x8(%rbp)
     205:	40 88 b5 f0 ff ff ff 	mov    %sil,-0x10(%rbp)
     20c:	48 8d 85 98 ff ff ff 	lea    -0x68(%rbp),%rax
     213:	48 89 85 e8 ff ff ff 	mov    %rax,-0x18(%rbp)
     21a:	8b 85 f8 ff ff ff    	mov    -0x8(%rbp),%eax
     220:	48 8b 8d e8 ff ff ff 	mov    -0x18(%rbp),%rcx
     227:	89 01                	mov    %eax,(%rcx)
     229:	48 8d 85 90 ff ff ff 	lea    -0x70(%rbp),%rax
     230:	48 89 85 e0 ff ff ff 	mov    %rax,-0x20(%rbp)
     237:	0f b6 85 f0 ff ff ff 	movzbl -0x10(%rbp),%eax
     23e:	48 8b 8d e0 ff ff ff 	mov    -0x20(%rbp),%rcx
     245:	88 01                	mov    %al,(%rcx)
     247:	48 8d 85 88 ff ff ff 	lea    -0x78(%rbp),%rax
     24e:	48 89 85 d8 ff ff ff 	mov    %rax,-0x28(%rbp)
     255:	48 8d 85 80 ff ff ff 	lea    -0x80(%rbp),%rax
     25c:	48 89 85 d0 ff ff ff 	mov    %rax,-0x30(%rbp)
     263:	48 8b 85 d8 ff ff ff 	mov    -0x28(%rbp),%rax
     26a:	48 8b 8d d0 ff ff ff 	mov    -0x30(%rbp),%rcx
     271:	48 89 01             	mov    %rax,(%rcx)
     274:	48 8b 85 d0 ff ff ff 	mov    -0x30(%rbp),%rax
     27b:	48 8b 00             	mov    (%rax),%rax
     27e:	48 89 85 c8 ff ff ff 	mov    %rax,-0x38(%rbp)
     285:	48 8b 85 c8 ff ff ff 	mov    -0x38(%rbp),%rax
     28c:	48 89 85 c0 ff ff ff 	mov    %rax,-0x40(%rbp)
     293:	48 8b 85 e0 ff ff ff 	mov    -0x20(%rbp),%rax
     29a:	48 0f b6 00          	movzbq (%rax),%rax
     29e:	88 85 b8 ff ff ff    	mov    %al,-0x48(%rbp)
     2a4:	0f b6 85 b8 ff ff ff 	movzbl -0x48(%rbp),%eax
     2ab:	48 8b 8d c0 ff ff ff 	mov    -0x40(%rbp),%rcx
     2b2:	88 01                	mov    %al,(%rcx)
     2b4:	48 8b 85 e8 ff ff ff 	mov    -0x18(%rbp),%rax
     2bb:	8b 00                	mov    (%rax),%eax
     2bd:	89 85 b0 ff ff ff    	mov    %eax,-0x50(%rbp)
     2c3:	48 8b 85 d0 ff ff ff 	mov    -0x30(%rbp),%rax
     2ca:	48 8b 00             	mov    (%rax),%rax
     2cd:	48 89 85 a8 ff ff ff 	mov    %rax,-0x58(%rbp)
     2d4:	8b bd b0 ff ff ff    	mov    -0x50(%rbp),%edi
     2da:	48 8b b5 a8 ff ff ff 	mov    -0x58(%rbp),%rsi
     2e1:	48 ba 01 00 00 00 00 	movabs $0x1,%rdx
     2e8:	00 00 00 
     2eb:	e8 00 00 00 00       	call   2f0 <io_write_byte+0xfc>
			2ec: R_X86_64_PLT32	io_write-0x4
     2f0:	48 89 85 a0 ff ff ff 	mov    %rax,-0x60(%rbp)
     2f7:	c9                   	leave
     2f8:	c3                   	ret

00000000000002f9 <io_write_str>:
     2f9:	55                   	push   %rbp
     2fa:	48 89 e5             	mov    %rsp,%rbp
     2fd:	48 81 ec 90 00 00 00 	sub    $0x90,%rsp
     304:	89 bd f8 ff ff ff    	mov    %edi,-0x8(%rbp)
     30a:	48 89 b5 f0 ff ff ff 	mov    %rsi,-0x10(%rbp)
     311:	48 8d 85 90 ff ff ff 	lea    -0x70(%rbp),%rax
     318:	48 89 85 e8 ff ff ff 	mov    %rax,-0x18(%rbp)
     31f:	8b 85 f8 ff ff ff    	mov    -0x8(%rbp),%eax
     325:	48 8b 8d e8 ff ff ff 	mov    -0x18(%rbp),%rcx
     32c:	89 01                	mov    %eax,(%rcx)
     32e:	48 8d 85 88 ff ff ff 	lea    -0x78(%rbp),%rax
     335:	48 89 85 e0 ff ff ff 	mov    %rax,-0x20(%rbp)
     33c:	48 8b 85 f0 ff ff ff 	mov    -0x10(%rbp),%rax
     343:	48 8b 8d e0 ff ff ff 	mov    -0x20(%rbp),%rcx
     34a:	48 89 01             	mov    %rax,(%rcx)
     34d:	48 8b 85 e0 ff ff ff 	mov    -0x20(%rbp),%rax
     354:	48 8b 00             	mov    (%rax),%rax
     357:	48 89 85 d8 ff ff ff 	mov    %rax,-0x28(%rbp)
     35e:	48 8d 85 80 ff ff ff 	lea    -0x80(%rbp),%rax
     365:	48 89 85 d0 ff ff ff 	mov    %rax,-0x30(%rbp)
     36c:	48 8b 85 d8 ff ff ff 	mov    -0x28(%rbp),%rax
     373:	48 8b 8d d0 ff ff ff 	mov    -0x30(%rbp),%rcx
     37a:	48 89 01             	mov    %rax,(%rcx)
     37d:	48 8b 85 d0 ff ff ff 	mov    -0x30(%rbp),%rax
     384:	48 8b 00             	mov    (%rax),%rax
     387:	48 89 85 c8 ff ff ff 	mov    %rax,-0x38(%rbp)
     38e:	48 8b bd c8 ff ff ff 	mov    -0x38(%rbp),%rdi
     395:	48 31 c0             	xor    %rax,%rax
     398:	48 31 c9             	xor    %rcx,%rcx
     39b:	80 3c 07 00          	cmpb   $0x0,(%rdi,%rax,1)
     39f:	74 04                	je     3a5 <io_write_str+0xac>
     3a1:	48 ff c0             	inc    %rax
     3a4:	eb f5                	jmp    39b <io_write_str+0xa2>
     3a6:	48 89 85 c0 ff ff ff 	mov    %rax,-0x40(%rbp)
     3ad:	48 8d 85 78 ff ff ff 	lea    -0x88(%rbp),%rax
     3b4:	48 89 85 b8 ff ff ff 	mov    %rax,-0x48(%rbp)
     3bb:	48 8b 85 c0 ff ff ff 	mov    -0x40(%rbp),%rax
     3c2:	48 8b 8d b8 ff ff ff 	mov    -0x48(%rbp),%rcx
     3c9:	48 89 01             	mov    %rax,(%rcx)
     3cc:	48 8b 85 e8 ff ff ff 	mov    -0x18(%rbp),%rax
     3d3:	8b 00                	mov    (%rax),%eax
     3d5:	89 85 b0 ff ff ff    	mov    %eax,-0x50(%rbp)
     3db:	48 8b 85 d0 ff ff ff 	mov    -0x30(%rbp),%rax
     3e2:	48 8b 00             	mov    (%rax),%rax
     3e5:	48 89 85 a8 ff ff ff 	mov    %rax,-0x58(%rbp)
     3ec:	48 8b 85 b8 ff ff ff 	mov    -0x48(%rbp),%rax
     3f3:	48 8b 00             	mov    (%rax),%rax
     3f6:	48 89 85 a0 ff ff ff 	mov    %rax,-0x60(%rbp)
     3fd:	8b bd b0 ff ff ff    	mov    -0x50(%rbp),%edi
     403:	48 8b b5 a8 ff ff ff 	mov    -0x58(%rbp),%rsi
     40a:	48 8b 95 a0 ff ff ff 	mov    -0x60(%rbp),%rdx
     411:	e8 00 00 00 00       	call   416 <io_write_str+0x11d>
			412: R_X86_64_PLT32	io_write-0x4
     416:	48 89 85 98 ff ff ff 	mov    %rax,-0x68(%rbp)
     41d:	c9                   	leave
     41e:	c3                   	ret

000000000000041f <io_print>:
     41f:	55                   	push   %rbp
     420:	48 89 e5             	mov    %rsp,%rbp
     423:	48 83 ec 30          	sub    $0x30,%rsp
     427:	48 89 bd f8 ff ff ff 	mov    %rdi,-0x8(%rbp)
     42e:	48 8d 85 d0 ff ff ff 	lea    -0x30(%rbp),%rax
     435:	48 89 85 f0 ff ff ff 	mov    %rax,-0x10(%rbp)
     43c:	48 8b 85 f8 ff ff ff 	mov    -0x8(%rbp),%rax
     443:	48 8b 8d f0 ff ff ff 	mov    -0x10(%rbp),%rcx
     44a:	48 89 01             	mov    %rax,(%rcx)
     44d:	48 8d 05 00 00 00 00 	lea    0x0(%rip),%rax        # 454 <io_print+0x35>
			450: R_X86_64_PC32	io_STDOUT-0x4
     454:	48 8b 00             	mov    (%rax),%rax
     457:	48 89 85 e8 ff ff ff 	mov    %rax,-0x18(%rbp)
     45e:	48 8b 85 e8 ff ff ff 	mov    -0x18(%rbp),%rax
     465:	89 85 e0 ff ff ff    	mov    %eax,-0x20(%rbp)
     46b:	48 8b 85 f0 ff ff ff 	mov    -0x10(%rbp),%rax
     472:	48 8b 00             	mov    (%rax),%rax
     475:	48 89 85 d8 ff ff ff 	mov    %rax,-0x28(%rbp)
     47c:	8b bd e0 ff ff ff    	mov    -0x20(%rbp),%edi
     482:	48 8b b5 d8 ff ff ff 	mov    -0x28(%rbp),%rsi
     489:	e8 00 00 00 00       	call   48e <io_print+0x6f>
			48a: R_X86_64_PLT32	io_write_str-0x4
     48e:	c9                   	leave
     48f:	c3                   	ret

0000000000000490 <io_println>:
     490:	55                   	push   %rbp
     491:	48 89 e5             	mov    %rsp,%rbp
     494:	48 83 ec 50          	sub    $0x50,%rsp
     498:	48 89 bd f8 ff ff ff 	mov    %rdi,-0x8(%rbp)
     49f:	48 8d 85 b8 ff ff ff 	lea    -0x48(%rbp),%rax
     4a6:	48 89 85 f0 ff ff ff 	mov    %rax,-0x10(%rbp)
     4ad:	48 8b 85 f8 ff ff ff 	mov    -0x8(%rbp),%rax
     4b4:	48 8b 8d f0 ff ff ff 	mov    -0x10(%rbp),%rcx
     4bb:	48 89 01             	mov    %rax,(%rcx)
     4be:	48 8d 05 00 00 00 00 	lea    0x0(%rip),%rax        # 4c5 <io_println+0x35>
			4c1: R_X86_64_PC32	io_STDOUT-0x4
     4c5:	48 8b 00             	mov    (%rax),%rax
     4c8:	48 89 85 e8 ff ff ff 	mov    %rax,-0x18(%rbp)
     4cf:	48 8b 85 e8 ff ff ff 	mov    -0x18(%rbp),%rax
     4d6:	89 85 e0 ff ff ff    	mov    %eax,-0x20(%rbp)
     4dc:	48 8b 85 f0 ff ff ff 	mov    -0x10(%rbp),%rax
     4e3:	48 8b 00             	mov    (%rax),%rax
     4e6:	48 89 85 d8 ff ff ff 	mov    %rax,-0x28(%rbp)
     4ed:	8b bd e0 ff ff ff    	mov    -0x20(%rbp),%edi
     4f3:	48 8b b5 d8 ff ff ff 	mov    -0x28(%rbp),%rsi
     4fa:	e8 00 00 00 00       	call   4ff <io_println+0x6f>
			4fb: R_X86_64_PLT32	io_write_str-0x4
     4ff:	48 8d 05 00 00 00 00 	lea    0x0(%rip),%rax        # 506 <io_println+0x76>
			502: R_X86_64_PC32	io_STDOUT-0x4
     506:	48 8b 00             	mov    (%rax),%rax
     509:	48 89 85 d0 ff ff ff 	mov    %rax,-0x30(%rbp)
     510:	48 8b 85 d0 ff ff ff 	mov    -0x30(%rbp),%rax
     517:	89 85 c8 ff ff ff    	mov    %eax,-0x38(%rbp)
     51d:	48 b8 0a 00 00 00 00 	movabs $0xa,%rax
     524:	00 00 00 
     527:	88 85 c0 ff ff ff    	mov    %al,-0x40(%rbp)
     52d:	8b bd c8 ff ff ff    	mov    -0x38(%rbp),%edi
     533:	0f b6 b5 c0 ff ff ff 	movzbl -0x40(%rbp),%esi
     53a:	e8 00 00 00 00       	call   53f <io_println+0xaf>
			53b: R_X86_64_PLT32	io_write_byte-0x4
     53f:	c9                   	leave
     540:	c3                   	ret

0000000000000541 <io_reverse_in_place>:
     541:	55                   	push   %rbp
     542:	48 89 e5             	mov    %rsp,%rbp
     545:	48 81 ec 30 01 00 00 	sub    $0x130,%rsp
     54c:	48 89 bd f8 ff ff ff 	mov    %rdi,-0x8(%rbp)
     553:	48 89 b5 f0 ff ff ff 	mov    %rsi,-0x10(%rbp)
     55a:	48 8d 85 f0 fe ff ff 	lea    -0x110(%rbp),%rax
     561:	48 89 85 e8 ff ff ff 	mov    %rax,-0x18(%rbp)
     568:	48 8b 85 f8 ff ff ff 	mov    -0x8(%rbp),%rax
     56f:	48 8b 8d e8 ff ff ff 	mov    -0x18(%rbp),%rcx
     576:	48 89 01             	mov    %rax,(%rcx)
     579:	48 8d 85 e8 fe ff ff 	lea    -0x118(%rbp),%rax
     580:	48 89 85 e0 ff ff ff 	mov    %rax,-0x20(%rbp)
     587:	48 8b 85 f0 ff ff ff 	mov    -0x10(%rbp),%rax
     58e:	48 8b 8d e0 ff ff ff 	mov    -0x20(%rbp),%rcx
     595:	48 89 01             	mov    %rax,(%rcx)
     598:	48 8b 85 e0 ff ff ff 	mov    -0x20(%rbp),%rax
     59f:	48 8b 00             	mov    (%rax),%rax
     5a2:	48 89 85 d8 ff ff ff 	mov    %rax,-0x28(%rbp)
     5a9:	48 8b 85 d8 ff ff ff 	mov    -0x28(%rbp),%rax
     5b0:	48 31 c9             	xor    %rcx,%rcx
     5b3:	48 39 c8             	cmp    %rcx,%rax
     5b6:	0f 94 c0             	sete   %al
     5b9:	48 0f b6 c0          	movzbq %al,%rax
     5bd:	88 85 d0 ff ff ff    	mov    %al,-0x30(%rbp)
     5c3:	0f b6 85 d0 ff ff ff 	movzbl -0x30(%rbp),%eax
     5ca:	48 85 c0             	test   %rax,%rax
     5cd:	0f 84 69 00 00 00    	je     63c <io_reverse_in_place+0xfb>
     5d3:	e9 62 00 00 00       	jmp    63a <io_reverse_in_place+0xf9>
     5d8:	48 8d 85 e0 fe ff ff 	lea    -0x120(%rbp),%rax
     5df:	48 89 85 c8 ff ff ff 	mov    %rax,-0x38(%rbp)
     5e6:	48 31 c0             	xor    %rax,%rax
     5e9:	48 8b 8d c8 ff ff ff 	mov    -0x38(%rbp),%rcx
     5f0:	48 89 01             	mov    %rax,(%rcx)
     5f3:	48 8b 85 e0 ff ff ff 	mov    -0x20(%rbp),%rax
     5fa:	48 8b 00             	mov    (%rax),%rax
     5fd:	48 89 85 c0 ff ff ff 	mov    %rax,-0x40(%rbp)
     604:	48 8b 85 c0 ff ff ff 	mov    -0x40(%rbp),%rax
     60b:	48 83 e8 01          	sub    $0x1,%rax
     60f:	48 89 85 b8 ff ff ff 	mov    %rax,-0x48(%rbp)
     616:	48 8d 85 d8 fe ff ff 	lea    -0x128(%rbp),%rax
     61d:	48 89 85 b0 ff ff ff 	mov    %rax,-0x50(%rbp)
     624:	48 8b 85 b8 ff ff ff 	mov    -0x48(%rbp),%rax
     62b:	48 8b 8d b0 ff ff ff 	mov    -0x50(%rbp),%rcx
     632:	48 89 01             	mov    %rax,(%rcx)
     635:	e9 07 00 00 00       	jmp    641 <io_reverse_in_place+0x100>
     63a:	c9                   	leave
     63b:	c3                   	ret
     63c:	e9 97 ff ff ff       	jmp    5d8 <io_reverse_in_place+0x97>
     641:	48 8b 85 c8 ff ff ff 	mov    -0x38(%rbp),%rax
     648:	48 8b 00             	mov    (%rax),%rax
     64b:	48 89 85 a8 ff ff ff 	mov    %rax,-0x58(%rbp)
     652:	48 8b 85 b0 ff ff ff 	mov    -0x50(%rbp),%rax
     659:	48 8b 00             	mov    (%rax),%rax
     65c:	48 89 85 a0 ff ff ff 	mov    %rax,-0x60(%rbp)
     663:	48 8b 85 a8 ff ff ff 	mov    -0x58(%rbp),%rax
     66a:	48 8b 8d a0 ff ff ff 	mov    -0x60(%rbp),%rcx
     671:	48 39 c8             	cmp    %rcx,%rax
     674:	0f 9c c0             	setl   %al
     677:	48 0f b6 c0          	movzbq %al,%rax
     67b:	88 85 98 ff ff ff    	mov    %al,-0x68(%rbp)
     681:	0f b6 85 98 ff ff ff 	movzbl -0x68(%rbp),%eax
     688:	48 85 c0             	test   %rax,%rax
     68b:	0f 84 d0 01 00 00    	je     861 <io_reverse_in_place+0x320>
     691:	e9 00 00 00 00       	jmp    696 <io_reverse_in_place+0x155>
     696:	48 8b 85 e8 ff ff ff 	mov    -0x18(%rbp),%rax
     69d:	48 8b 00             	mov    (%rax),%rax
     6a0:	48 89 85 90 ff ff ff 	mov    %rax,-0x70(%rbp)
     6a7:	48 8b 85 c8 ff ff ff 	mov    -0x38(%rbp),%rax
     6ae:	48 8b 00             	mov    (%rax),%rax
     6b1:	48 89 85 88 ff ff ff 	mov    %rax,-0x78(%rbp)
     6b8:	48 8b 85 90 ff ff ff 	mov    -0x70(%rbp),%rax
     6bf:	48 8b 8d 88 ff ff ff 	mov    -0x78(%rbp),%rcx
     6c6:	48 01 c8             	add    %rcx,%rax
     6c9:	48 89 85 80 ff ff ff 	mov    %rax,-0x80(%rbp)
     6d0:	48 8b 85 80 ff ff ff 	mov    -0x80(%rbp),%rax
     6d7:	48 0f b6 00          	movzbq (%rax),%rax
     6db:	88 85 78 ff ff ff    	mov    %al,-0x88(%rbp)
     6e1:	48 8d 85 d0 fe ff ff 	lea    -0x130(%rbp),%rax
     6e8:	48 89 85 70 ff ff ff 	mov    %rax,-0x90(%rbp)
     6ef:	0f b6 85 78 ff ff ff 	movzbl -0x88(%rbp),%eax
     6f6:	48 8b 8d 70 ff ff ff 	mov    -0x90(%rbp),%rcx
     6fd:	88 01                	mov    %al,(%rcx)
     6ff:	48 8b 85 e8 ff ff ff 	mov    -0x18(%rbp),%rax
     706:	48 8b 00             	mov    (%rax),%rax
     709:	48 89 85 68 ff ff ff 	mov    %rax,-0x98(%rbp)
     710:	48 8b 85 c8 ff ff ff 	mov    -0x38(%rbp),%rax
     717:	48 8b 00             	mov    (%rax),%rax
     71a:	48 89 85 60 ff ff ff 	mov    %rax,-0xa0(%rbp)
     721:	48 8b 85 68 ff ff ff 	mov    -0x98(%rbp),%rax
     728:	48 8b 8d 60 ff ff ff 	mov    -0xa0(%rbp),%rcx
     72f:	48 01 c8             	add    %rcx,%rax
     732:	48 89 85 58 ff ff ff 	mov    %rax,-0xa8(%rbp)
     739:	48 8b 85 e8 ff ff ff 	mov    -0x18(%rbp),%rax
     740:	48 8b 00             	mov    (%rax),%rax
     743:	48 89 85 50 ff ff ff 	mov    %rax,-0xb0(%rbp)
     74a:	48 8b 85 b0 ff ff ff 	mov    -0x50(%rbp),%rax
     751:	48 8b 00             	mov    (%rax),%rax
     754:	48 89 85 48 ff ff ff 	mov    %rax,-0xb8(%rbp)
     75b:	48 8b 85 50 ff ff ff 	mov    -0xb0(%rbp),%rax
     762:	48 8b 8d 48 ff ff ff 	mov    -0xb8(%rbp),%rcx
     769:	48 01 c8             	add    %rcx,%rax
     76c:	48 89 85 40 ff ff ff 	mov    %rax,-0xc0(%rbp)
     773:	48 8b 85 40 ff ff ff 	mov    -0xc0(%rbp),%rax
     77a:	48 0f b6 00          	movzbq (%rax),%rax
     77e:	88 85 38 ff ff ff    	mov    %al,-0xc8(%rbp)
     784:	0f b6 85 38 ff ff ff 	movzbl -0xc8(%rbp),%eax
     78b:	48 8b 8d 58 ff ff ff 	mov    -0xa8(%rbp),%rcx
     792:	88 01                	mov    %al,(%rcx)
     794:	48 8b 85 e8 ff ff ff 	mov    -0x18(%rbp),%rax
     79b:	48 8b 00             	mov    (%rax),%rax
     79e:	48 89 85 30 ff ff ff 	mov    %rax,-0xd0(%rbp)
     7a5:	48 8b 85 b0 ff ff ff 	mov    -0x50(%rbp),%rax
     7ac:	48 8b 00             	mov    (%rax),%rax
     7af:	48 89 85 28 ff ff ff 	mov    %rax,-0xd8(%rbp)
     7b6:	48 8b 85 30 ff ff ff 	mov    -0xd0(%rbp),%rax
     7bd:	48 8b 8d 28 ff ff ff 	mov    -0xd8(%rbp),%rcx
     7c4:	48 01 c8             	add    %rcx,%rax
     7c7:	48 89 85 20 ff ff ff 	mov    %rax,-0xe0(%rbp)
     7ce:	48 8b 85 70 ff ff ff 	mov    -0x90(%rbp),%rax
     7d5:	48 0f b6 00          	movzbq (%rax),%rax
     7d9:	88 85 18 ff ff ff    	mov    %al,-0xe8(%rbp)
     7df:	0f b6 85 18 ff ff ff 	movzbl -0xe8(%rbp),%eax
     7e6:	48 8b 8d 20 ff ff ff 	mov    -0xe0(%rbp),%rcx
     7ed:	88 01                	mov    %al,(%rcx)
     7ef:	48 8b 85 c8 ff ff ff 	mov    -0x38(%rbp),%rax
     7f6:	48 8b 00             	mov    (%rax),%rax
     7f9:	48 89 85 10 ff ff ff 	mov    %rax,-0xf0(%rbp)
     800:	48 8b 85 10 ff ff ff 	mov    -0xf0(%rbp),%rax
     807:	48 83 c0 01          	add    $0x1,%rax
     80b:	48 89 85 08 ff ff ff 	mov    %rax,-0xf8(%rbp)
     812:	48 8b 85 08 ff ff ff 	mov    -0xf8(%rbp),%rax
     819:	48 8b 8d c8 ff ff ff 	mov    -0x38(%rbp),%rcx
     820:	48 89 01             	mov    %rax,(%rcx)
     823:	48 8b 85 b0 ff ff ff 	mov    -0x50(%rbp),%rax
     82a:	48 8b 00             	mov    (%rax),%rax
     82d:	48 89 85 00 ff ff ff 	mov    %rax,-0x100(%rbp)
     834:	48 8b 85 00 ff ff ff 	mov    -0x100(%rbp),%rax
     83b:	48 83 e8 01          	sub    $0x1,%rax
     83f:	48 89 85 f8 fe ff ff 	mov    %rax,-0x108(%rbp)
     846:	48 8b 85 f8 fe ff ff 	mov    -0x108(%rbp),%rax
     84d:	48 8b 8d b0 ff ff ff 	mov    -0x50(%rbp),%rcx
     854:	48 89 01             	mov    %rax,(%rcx)
     857:	e9 e5 fd ff ff       	jmp    641 <io_reverse_in_place+0x100>
     85c:	e9 e0 fd ff ff       	jmp    641 <io_reverse_in_place+0x100>
     861:	c9                   	leave
     862:	c3                   	ret

0000000000000863 <io_int_to_str>:
     863:	55                   	push   %rbp
     864:	48 89 e5             	mov    %rsp,%rbp
     867:	48 81 ec 20 02 00 00 	sub    $0x220,%rsp
     86e:	48 89 bd f8 ff ff ff 	mov    %rdi,-0x8(%rbp)
     875:	48 89 b5 f0 ff ff ff 	mov    %rsi,-0x10(%rbp)
     87c:	48 89 95 e8 ff ff ff 	mov    %rdx,-0x18(%rbp)
     883:	48 8d 85 18 fe ff ff 	lea    -0x1e8(%rbp),%rax
     88a:	48 89 85 e0 ff ff ff 	mov    %rax,-0x20(%rbp)
     891:	48 8b 85 f8 ff ff ff 	mov    -0x8(%rbp),%rax
     898:	48 8b 8d e0 ff ff ff 	mov    -0x20(%rbp),%rcx
     89f:	48 89 01             	mov    %rax,(%rcx)
     8a2:	48 8d 85 10 fe ff ff 	lea    -0x1f0(%rbp),%rax
     8a9:	48 89 85 d8 ff ff ff 	mov    %rax,-0x28(%rbp)
     8b0:	48 8b 85 f0 ff ff ff 	mov    -0x10(%rbp),%rax
     8b7:	48 8b 8d d8 ff ff ff 	mov    -0x28(%rbp),%rcx
     8be:	48 89 01             	mov    %rax,(%rcx)
     8c1:	48 8d 85 08 fe ff ff 	lea    -0x1f8(%rbp),%rax
     8c8:	48 89 85 d0 ff ff ff 	mov    %rax,-0x30(%rbp)
     8cf:	48 8b 85 e8 ff ff ff 	mov    -0x18(%rbp),%rax
     8d6:	48 8b 8d d0 ff ff ff 	mov    -0x30(%rbp),%rcx
     8dd:	48 89 01             	mov    %rax,(%rcx)
     8e0:	48 8b 85 d8 ff ff ff 	mov    -0x28(%rbp),%rax
     8e7:	48 8b 00             	mov    (%rax),%rax
     8ea:	48 89 85 c8 ff ff ff 	mov    %rax,-0x38(%rbp)
     8f1:	48 8b 85 c8 ff ff ff 	mov    -0x38(%rbp),%rax
     8f8:	48 31 c9             	xor    %rcx,%rcx
     8fb:	48 39 c8             	cmp    %rcx,%rax
     8fe:	0f 94 c0             	sete   %al
     901:	48 0f b6 c0          	movzbq %al,%rax
     905:	88 85 c0 ff ff ff    	mov    %al,-0x40(%rbp)
     90b:	0f b6 85 c0 ff ff ff 	movzbl -0x40(%rbp),%eax
     912:	48 85 c0             	test   %rax,%rax
     915:	0f 84 31 01 00 00    	je     a4c <io_int_to_str+0x1e9>
     91b:	e9 ee 00 00 00       	jmp    a0e <io_int_to_str+0x1ab>
     920:	48 8d 85 00 fe ff ff 	lea    -0x200(%rbp),%rax
     927:	48 89 85 b8 ff ff ff 	mov    %rax,-0x48(%rbp)
     92e:	48 31 c0             	xor    %rax,%rax
     931:	48 8b 8d b8 ff ff ff 	mov    -0x48(%rbp),%rcx
     938:	48 89 01             	mov    %rax,(%rcx)
     93b:	48 8d 85 f8 fd ff ff 	lea    -0x208(%rbp),%rax
     942:	48 89 85 b0 ff ff ff 	mov    %rax,-0x50(%rbp)
     949:	48 31 c0             	xor    %rax,%rax
     94c:	48 8b 8d b0 ff ff ff 	mov    -0x50(%rbp),%rcx
     953:	88 01                	mov    %al,(%rcx)
     955:	48 8b 85 d8 ff ff ff 	mov    -0x28(%rbp),%rax
     95c:	48 8b 00             	mov    (%rax),%rax
     95f:	48 89 85 a8 ff ff ff 	mov    %rax,-0x58(%rbp)
     966:	48 8d 85 f0 fd ff ff 	lea    -0x210(%rbp),%rax
     96d:	48 89 85 a0 ff ff ff 	mov    %rax,-0x60(%rbp)
     974:	48 8b 85 a8 ff ff ff 	mov    -0x58(%rbp),%rax
     97b:	48 8b 8d a0 ff ff ff 	mov    -0x60(%rbp),%rcx
     982:	48 89 01             	mov    %rax,(%rcx)
     985:	48 8b 85 d8 ff ff ff 	mov    -0x28(%rbp),%rax
     98c:	48 8b 00             	mov    (%rax),%rax
     98f:	48 89 85 98 ff ff ff 	mov    %rax,-0x68(%rbp)
     996:	48 8b 85 98 ff ff ff 	mov    -0x68(%rbp),%rax
     99d:	48 31 c9             	xor    %rcx,%rcx
     9a0:	48 39 c8             	cmp    %rcx,%rax
     9a3:	0f 9c c0             	setl   %al
     9a6:	48 0f b6 c0          	movzbq %al,%rax
     9aa:	88 85 90 ff ff ff    	mov    %al,-0x70(%rbp)
     9b0:	48 8b 85 d0 ff ff ff 	mov    -0x30(%rbp),%rax
     9b7:	48 8b 00             	mov    (%rax),%rax
     9ba:	48 89 85 88 ff ff ff 	mov    %rax,-0x78(%rbp)
     9c1:	48 8b 85 88 ff ff ff 	mov    -0x78(%rbp),%rax
     9c8:	48 b9 0a 00 00 00 00 	movabs $0xa,%rcx
     9cf:	00 00 00 
     9d2:	48 39 c8             	cmp    %rcx,%rax
     9d5:	0f 94 c0             	sete   %al
     9d8:	48 0f b6 c0          	movzbq %al,%rax
     9dc:	88 85 80 ff ff ff    	mov    %al,-0x80(%rbp)
     9e2:	0f b6 85 90 ff ff ff 	movzbl -0x70(%rbp),%eax
     9e9:	0f b6 8d 80 ff ff ff 	movzbl -0x80(%rbp),%ecx
     9f0:	48 21 c8             	and    %rcx,%rax
     9f3:	88 85 78 ff ff ff    	mov    %al,-0x88(%rbp)
     9f9:	0f b6 85 78 ff ff ff 	movzbl -0x88(%rbp),%eax
     a00:	48 85 c0             	test   %rax,%rax
     a03:	0f 84 9b 00 00 00    	je     aa4 <io_int_to_str+0x241>
     a09:	e9 48 00 00 00       	jmp    a56 <io_int_to_str+0x1f3>
     a0e:	48 8b 85 e0 ff ff ff 	mov    -0x20(%rbp),%rax
     a15:	48 8b 00             	mov    (%rax),%rax
     a18:	48 89 85 70 ff ff ff 	mov    %rax,-0x90(%rbp)
     a1f:	48 8b 85 70 ff ff ff 	mov    -0x90(%rbp),%rax
     a26:	48 89 85 68 ff ff ff 	mov    %rax,-0x98(%rbp)
     a2d:	48 b8 30 00 00 00 00 	movabs $0x30,%rax
     a34:	00 00 00 
     a37:	48 8b 8d 68 ff ff ff 	mov    -0x98(%rbp),%rcx
     a3e:	89 01                	mov    %eax,(%rcx)
     a40:	48 b8 01 00 00 00 00 	movabs $0x1,%rax
     a47:	00 00 00 
     a4a:	c9                   	leave
     a4b:	c3                   	ret
     a4c:	e9 cf fe ff ff       	jmp    920 <io_int_to_str+0xbd>
     a51:	e9 ce 00 00 00       	jmp    b24 <io_int_to_str+0x2c1>
     a56:	48 b8 01 00 00 00 00 	movabs $0x1,%rax
     a5d:	00 00 00 
     a60:	48 8b 8d b0 ff ff ff 	mov    -0x50(%rbp),%rcx
     a67:	88 01                	mov    %al,(%rcx)
     a69:	48 8b 85 d8 ff ff ff 	mov    -0x28(%rbp),%rax
     a70:	48 8b 00             	mov    (%rax),%rax
     a73:	48 89 85 60 ff ff ff 	mov    %rax,-0xa0(%rbp)
     a7a:	48 31 c0             	xor    %rax,%rax
     a7d:	48 8b 8d 60 ff ff ff 	mov    -0xa0(%rbp),%rcx
     a84:	48 29 c8             	sub    %rcx,%rax
     a87:	48 89 85 58 ff ff ff 	mov    %rax,-0xa8(%rbp)
     a8e:	48 8b 85 58 ff ff ff 	mov    -0xa8(%rbp),%rax
     a95:	48 8b 8d a0 ff ff ff 	mov    -0x60(%rbp),%rcx
     a9c:	48 89 01             	mov    %rax,(%rcx)
     a9f:	e9 ad ff ff ff       	jmp    a51 <io_int_to_str+0x1ee>
     aa4:	48 8b 85 d8 ff ff ff 	mov    -0x28(%rbp),%rax
     aab:	48 8b 00             	mov    (%rax),%rax
     aae:	48 89 85 50 ff ff ff 	mov    %rax,-0xb0(%rbp)
     ab5:	48 8b 85 50 ff ff ff 	mov    -0xb0(%rbp),%rax
     abc:	48 31 c9             	xor    %rcx,%rcx
     abf:	48 39 c8             	cmp    %rcx,%rax
     ac2:	0f 9c c0             	setl   %al
     ac5:	48 0f b6 c0          	movzbq %al,%rax
     ac9:	88 85 48 ff ff ff    	mov    %al,-0xb8(%rbp)
     acf:	0f b6 85 48 ff ff ff 	movzbl -0xb8(%rbp),%eax
     ad6:	48 85 c0             	test   %rax,%rax
     ad9:	0f 84 40 00 00 00    	je     b1f <io_int_to_str+0x2bc>
     adf:	e9 00 00 00 00       	jmp    ae4 <io_int_to_str+0x281>
     ae4:	48 8b 85 d8 ff ff ff 	mov    -0x28(%rbp),%rax
     aeb:	48 8b 00             	mov    (%rax),%rax
     aee:	48 89 85 40 ff ff ff 	mov    %rax,-0xc0(%rbp)
     af5:	48 31 c0             	xor    %rax,%rax
     af8:	48 8b 8d 40 ff ff ff 	mov    -0xc0(%rbp),%rcx
     aff:	48 29 c8             	sub    %rcx,%rax
     b02:	48 89 85 38 ff ff ff 	mov    %rax,-0xc8(%rbp)
     b09:	48 8b 85 38 ff ff ff 	mov    -0xc8(%rbp),%rax
     b10:	48 8b 8d a0 ff ff ff 	mov    -0x60(%rbp),%rcx
     b17:	48 89 01             	mov    %rax,(%rcx)
     b1a:	e9 32 ff ff ff       	jmp    a51 <io_int_to_str+0x1ee>
     b1f:	e9 2d ff ff ff       	jmp    a51 <io_int_to_str+0x1ee>
     b24:	48 8b 85 a0 ff ff ff 	mov    -0x60(%rbp),%rax
     b2b:	48 8b 00             	mov    (%rax),%rax
     b2e:	48 89 85 30 ff ff ff 	mov    %rax,-0xd0(%rbp)
     b35:	48 8b 85 30 ff ff ff 	mov    -0xd0(%rbp),%rax
     b3c:	48 31 c9             	xor    %rcx,%rcx
     b3f:	48 39 c8             	cmp    %rcx,%rax
     b42:	0f 9f c0             	setg   %al
     b45:	48 0f b6 c0          	movzbq %al,%rax
     b49:	88 85 28 ff ff ff    	mov    %al,-0xd8(%rbp)
     b4f:	0f b6 85 28 ff ff ff 	movzbl -0xd8(%rbp),%eax
     b56:	48 85 c0             	test   %rax,%rax
     b59:	0f 84 ac 00 00 00    	je     c0b <io_int_to_str+0x3a8>
     b5f:	e9 00 00 00 00       	jmp    b64 <io_int_to_str+0x301>
     b64:	48 8b 85 a0 ff ff ff 	mov    -0x60(%rbp),%rax
     b6b:	48 8b 00             	mov    (%rax),%rax
     b6e:	48 89 85 20 ff ff ff 	mov    %rax,-0xe0(%rbp)
     b75:	48 8b 85 d0 ff ff ff 	mov    -0x30(%rbp),%rax
     b7c:	48 8b 00             	mov    (%rax),%rax
     b7f:	48 89 85 18 ff ff ff 	mov    %rax,-0xe8(%rbp)
     b86:	48 8b 85 20 ff ff ff 	mov    -0xe0(%rbp),%rax
     b8d:	48 8b 8d 18 ff ff ff 	mov    -0xe8(%rbp),%rcx
     b94:	48 99                	cqto
     b96:	48 f7 f9             	idiv   %rcx
     b99:	48 89 95 10 ff ff ff 	mov    %rdx,-0xf0(%rbp)
     ba0:	48 8d 85 e8 fd ff ff 	lea    -0x218(%rbp),%rax
     ba7:	48 89 85 08 ff ff ff 	mov    %rax,-0xf8(%rbp)
     bae:	48 8b 85 10 ff ff ff 	mov    -0xf0(%rbp),%rax
     bb5:	48 8b 8d 08 ff ff ff 	mov    -0xf8(%rbp),%rcx
     bbc:	48 89 01             	mov    %rax,(%rcx)
     bbf:	48 8b 85 08 ff ff ff 	mov    -0xf8(%rbp),%rax
     bc6:	48 8b 00             	mov    (%rax),%rax
     bc9:	48 89 85 00 ff ff ff 	mov    %rax,-0x100(%rbp)
     bd0:	48 8b 85 00 ff ff ff 	mov    -0x100(%rbp),%rax
     bd7:	48 b9 09 00 00 00 00 	movabs $0x9,%rcx
     bde:	00 00 00 
     be1:	48 39 c8             	cmp    %rcx,%rax
     be4:	0f 9f c0             	setg   %al
     be7:	48 0f b6 c0          	movzbq %al,%rax
     beb:	88 85 f8 fe ff ff    	mov    %al,-0x108(%rbp)
     bf1:	0f b6 85 f8 fe ff ff 	movzbl -0x108(%rbp),%eax
     bf8:	48 85 c0             	test   %rax,%rax
     bfb:	0f 84 47 01 00 00    	je     d48 <io_int_to_str+0x4e5>
     c01:	e9 b1 00 00 00       	jmp    cb7 <io_int_to_str+0x454>
     c06:	e9 19 ff ff ff       	jmp    b24 <io_int_to_str+0x2c1>
     c0b:	48 8b 85 b0 ff ff ff 	mov    -0x50(%rbp),%rax
     c12:	48 0f b6 00          	movzbq (%rax),%rax
     c16:	88 85 f0 fe ff ff    	mov    %al,-0x110(%rbp)
     c1c:	0f b6 85 f0 fe ff ff 	movzbl -0x110(%rbp),%eax
     c23:	48 85 c0             	test   %rax,%rax
     c26:	0f 84 70 02 00 00    	je     e9c <io_int_to_str+0x639>
     c2c:	e9 e5 01 00 00       	jmp    e16 <io_int_to_str+0x5b3>
     c31:	48 8b 85 d0 ff ff ff 	mov    -0x30(%rbp),%rax
     c38:	48 8b 00             	mov    (%rax),%rax
     c3b:	48 89 85 e8 fe ff ff 	mov    %rax,-0x118(%rbp)
     c42:	48 8b 85 a0 ff ff ff 	mov    -0x60(%rbp),%rax
     c49:	48 8b 00             	mov    (%rax),%rax
     c4c:	48 89 85 e0 fe ff ff 	mov    %rax,-0x120(%rbp)
     c53:	48 8b 85 e0 fe ff ff 	mov    -0x120(%rbp),%rax
     c5a:	48 8b 8d e8 fe ff ff 	mov    -0x118(%rbp),%rcx
     c61:	48 99                	cqto
     c63:	48 f7 f9             	idiv   %rcx
     c66:	48 89 85 d8 fe ff ff 	mov    %rax,-0x128(%rbp)
     c6d:	48 8b 85 d8 fe ff ff 	mov    -0x128(%rbp),%rax
     c74:	48 8b 8d a0 ff ff ff 	mov    -0x60(%rbp),%rcx
     c7b:	48 89 01             	mov    %rax,(%rcx)
     c7e:	48 8b 85 b8 ff ff ff 	mov    -0x48(%rbp),%rax
     c85:	48 8b 00             	mov    (%rax),%rax
     c88:	48 89 85 d0 fe ff ff 	mov    %rax,-0x130(%rbp)
     c8f:	48 8b 85 d0 fe ff ff 	mov    -0x130(%rbp),%rax
     c96:	48 83 c0 01          	add    $0x1,%rax
     c9a:	48 89 85 c8 fe ff ff 	mov    %rax,-0x138(%rbp)
     ca1:	48 8b 85 c8 fe ff ff 	mov    -0x138(%rbp),%rax
     ca8:	48 8b 8d b8 ff ff ff 	mov    -0x48(%rbp),%rcx
     caf:	48 89 01             	mov    %rax,(%rcx)
     cb2:	e9 6d fe ff ff       	jmp    b24 <io_int_to_str+0x2c1>
     cb7:	48 8b 85 e0 ff ff ff 	mov    -0x20(%rbp),%rax
     cbe:	48 8b 00             	mov    (%rax),%rax
     cc1:	48 89 85 c0 fe ff ff 	mov    %rax,-0x140(%rbp)
     cc8:	48 8b 85 b8 ff ff ff 	mov    -0x48(%rbp),%rax
     ccf:	48 8b 00             	mov    (%rax),%rax
     cd2:	48 89 85 b8 fe ff ff 	mov    %rax,-0x148(%rbp)
     cd9:	48 8b 85 c0 fe ff ff 	mov    -0x140(%rbp),%rax
     ce0:	48 8b 8d b8 fe ff ff 	mov    -0x148(%rbp),%rcx
     ce7:	48 01 c8             	add    %rcx,%rax
     cea:	48 89 85 b0 fe ff ff 	mov    %rax,-0x150(%rbp)
     cf1:	48 8b 85 08 ff ff ff 	mov    -0xf8(%rbp),%rax
     cf8:	48 8b 00             	mov    (%rax),%rax
     cfb:	48 89 85 a8 fe ff ff 	mov    %rax,-0x158(%rbp)
     d02:	48 8b 85 a8 fe ff ff 	mov    -0x158(%rbp),%rax
     d09:	48 83 e8 0a          	sub    $0xa,%rax
     d0d:	48 89 85 a0 fe ff ff 	mov    %rax,-0x160(%rbp)
     d14:	48 8b 85 a0 fe ff ff 	mov    -0x160(%rbp),%rax
     d1b:	48 83 c0 61          	add    $0x61,%rax
     d1f:	48 89 85 98 fe ff ff 	mov    %rax,-0x168(%rbp)
     d26:	48 8b 85 98 fe ff ff 	mov    -0x168(%rbp),%rax
     d2d:	88 85 90 fe ff ff    	mov    %al,-0x170(%rbp)
     d33:	0f b6 85 90 fe ff ff 	movzbl -0x170(%rbp),%eax
     d3a:	48 8b 8d b0 fe ff ff 	mov    -0x150(%rbp),%rcx
     d41:	88 01                	mov    %al,(%rcx)
     d43:	e9 e9 fe ff ff       	jmp    c31 <io_int_to_str+0x3ce>
     d48:	48 8b 85 e0 ff ff ff 	mov    -0x20(%rbp),%rax
     d4f:	48 8b 00             	mov    (%rax),%rax
     d52:	48 89 85 88 fe ff ff 	mov    %rax,-0x178(%rbp)
     d59:	48 8b 85 b8 ff ff ff 	mov    -0x48(%rbp),%rax
     d60:	48 8b 00             	mov    (%rax),%rax
     d63:	48 89 85 80 fe ff ff 	mov    %rax,-0x180(%rbp)
     d6a:	48 8b 85 88 fe ff ff 	mov    -0x178(%rbp),%rax
     d71:	48 8b 8d 80 fe ff ff 	mov    -0x180(%rbp),%rcx
     d78:	48 01 c8             	add    %rcx,%rax
     d7b:	48 89 85 78 fe ff ff 	mov    %rax,-0x188(%rbp)
     d82:	48 8b 85 08 ff ff ff 	mov    -0xf8(%rbp),%rax
     d89:	48 8b 00             	mov    (%rax),%rax
     d8c:	48 89 85 70 fe ff ff 	mov    %rax,-0x190(%rbp)
     d93:	48 8b 85 70 fe ff ff 	mov    -0x190(%rbp),%rax
     d9a:	48 83 c0 30          	add    $0x30,%rax
     d9e:	48 89 85 68 fe ff ff 	mov    %rax,-0x198(%rbp)
     da5:	48 8b 85 68 fe ff ff 	mov    -0x198(%rbp),%rax
     dac:	88 85 60 fe ff ff    	mov    %al,-0x1a0(%rbp)
     db2:	0f b6 85 60 fe ff ff 	movzbl -0x1a0(%rbp),%eax
     db9:	48 8b 8d 78 fe ff ff 	mov    -0x188(%rbp),%rcx
     dc0:	88 01                	mov    %al,(%rcx)
     dc2:	e9 6a fe ff ff       	jmp    c31 <io_int_to_str+0x3ce>
     dc7:	48 8b 85 e0 ff ff ff 	mov    -0x20(%rbp),%rax
     dce:	48 8b 00             	mov    (%rax),%rax
     dd1:	48 89 85 58 fe ff ff 	mov    %rax,-0x1a8(%rbp)
     dd8:	48 8b 85 b8 ff ff ff 	mov    -0x48(%rbp),%rax
     ddf:	48 8b 00             	mov    (%rax),%rax
     de2:	48 89 85 50 fe ff ff 	mov    %rax,-0x1b0(%rbp)
     de9:	48 8b bd 58 fe ff ff 	mov    -0x1a8(%rbp),%rdi
     df0:	48 8b b5 50 fe ff ff 	mov    -0x1b0(%rbp),%rsi
     df7:	e8 00 00 00 00       	call   dfc <io_int_to_str+0x599>
			df8: R_X86_64_PLT32	io_reverse_in_place-0x4
     dfc:	48 8b 85 b8 ff ff ff 	mov    -0x48(%rbp),%rax
     e03:	48 8b 00             	mov    (%rax),%rax
     e06:	48 89 85 48 fe ff ff 	mov    %rax,-0x1b8(%rbp)
     e0d:	48 8b 85 48 fe ff ff 	mov    -0x1b8(%rbp),%rax
     e14:	c9                   	leave
     e15:	c3                   	ret
     e16:	48 8b 85 e0 ff ff ff 	mov    -0x20(%rbp),%rax
     e1d:	48 8b 00             	mov    (%rax),%rax
     e20:	48 89 85 40 fe ff ff 	mov    %rax,-0x1c0(%rbp)
     e27:	48 8b 85 b8 ff ff ff 	mov    -0x48(%rbp),%rax
     e2e:	48 8b 00             	mov    (%rax),%rax
     e31:	48 89 85 38 fe ff ff 	mov    %rax,-0x1c8(%rbp)
     e38:	48 8b 85 40 fe ff ff 	mov    -0x1c0(%rbp),%rax
     e3f:	48 8b 8d 38 fe ff ff 	mov    -0x1c8(%rbp),%rcx
     e46:	48 01 c8             	add    %rcx,%rax
     e49:	48 89 85 30 fe ff ff 	mov    %rax,-0x1d0(%rbp)
     e50:	48 b8 2d 00 00 00 00 	movabs $0x2d,%rax
     e57:	00 00 00 
     e5a:	48 8b 8d 30 fe ff ff 	mov    -0x1d0(%rbp),%rcx
     e61:	89 01                	mov    %eax,(%rcx)
     e63:	48 8b 85 b8 ff ff ff 	mov    -0x48(%rbp),%rax
     e6a:	48 8b 00             	mov    (%rax),%rax
     e6d:	48 89 85 28 fe ff ff 	mov    %rax,-0x1d8(%rbp)
     e74:	48 8b 85 28 fe ff ff 	mov    -0x1d8(%rbp),%rax
     e7b:	48 83 c0 01          	add    $0x1,%rax
     e7f:	48 89 85 20 fe ff ff 	mov    %rax,-0x1e0(%rbp)
     e86:	48 8b 85 20 fe ff ff 	mov    -0x1e0(%rbp),%rax
     e8d:	48 8b 8d b8 ff ff ff 	mov    -0x48(%rbp),%rcx
     e94:	48 89 01             	mov    %rax,(%rcx)
     e97:	e9 2b ff ff ff       	jmp    dc7 <io_int_to_str+0x564>
     e9c:	e9 26 ff ff ff       	jmp    dc7 <io_int_to_str+0x564>

0000000000000ea1 <io_uint_to_str>:
     ea1:	55                   	push   %rbp
     ea2:	48 89 e5             	mov    %rsp,%rbp
     ea5:	48 81 ec 80 01 00 00 	sub    $0x180,%rsp
     eac:	48 89 bd f8 ff ff ff 	mov    %rdi,-0x8(%rbp)
     eb3:	48 89 b5 f0 ff ff ff 	mov    %rsi,-0x10(%rbp)
     eba:	48 89 95 e8 ff ff ff 	mov    %rdx,-0x18(%rbp)
     ec1:	48 8d 85 a8 fe ff ff 	lea    -0x158(%rbp),%rax
     ec8:	48 89 85 e0 ff ff ff 	mov    %rax,-0x20(%rbp)
     ecf:	48 8b 85 f8 ff ff ff 	mov    -0x8(%rbp),%rax
     ed6:	48 8b 8d e0 ff ff ff 	mov    -0x20(%rbp),%rcx
     edd:	48 89 01             	mov    %rax,(%rcx)
     ee0:	48 8d 85 a0 fe ff ff 	lea    -0x160(%rbp),%rax
     ee7:	48 89 85 d8 ff ff ff 	mov    %rax,-0x28(%rbp)
     eee:	48 8b 85 f0 ff ff ff 	mov    -0x10(%rbp),%rax
     ef5:	48 8b 8d d8 ff ff ff 	mov    -0x28(%rbp),%rcx
     efc:	48 89 01             	mov    %rax,(%rcx)
     eff:	48 8d 85 98 fe ff ff 	lea    -0x168(%rbp),%rax
     f06:	48 89 85 d0 ff ff ff 	mov    %rax,-0x30(%rbp)
     f0d:	48 8b 85 e8 ff ff ff 	mov    -0x18(%rbp),%rax
     f14:	48 8b 8d d0 ff ff ff 	mov    -0x30(%rbp),%rcx
     f1b:	48 89 01             	mov    %rax,(%rcx)
     f1e:	48 8b 85 d8 ff ff ff 	mov    -0x28(%rbp),%rax
     f25:	48 8b 00             	mov    (%rax),%rax
     f28:	48 89 85 c8 ff ff ff 	mov    %rax,-0x38(%rbp)
     f2f:	48 8b 85 c8 ff ff ff 	mov    -0x38(%rbp),%rax
     f36:	48 31 c9             	xor    %rcx,%rcx
     f39:	48 39 c8             	cmp    %rcx,%rax
     f3c:	0f 94 c0             	sete   %al
     f3f:	48 0f b6 c0          	movzbq %al,%rax
     f43:	88 85 c0 ff ff ff    	mov    %al,-0x40(%rbp)
     f49:	0f b6 85 c0 ff ff ff 	movzbl -0x40(%rbp),%eax
     f50:	48 85 c0             	test   %rax,%rax
     f53:	0f 84 93 00 00 00    	je     fec <io_uint_to_str+0x14b>
     f59:	e9 50 00 00 00       	jmp    fae <io_uint_to_str+0x10d>
     f5e:	48 8d 85 90 fe ff ff 	lea    -0x170(%rbp),%rax
     f65:	48 89 85 b8 ff ff ff 	mov    %rax,-0x48(%rbp)
     f6c:	48 31 c0             	xor    %rax,%rax
     f6f:	48 8b 8d b8 ff ff ff 	mov    -0x48(%rbp),%rcx
     f76:	48 89 01             	mov    %rax,(%rcx)
     f79:	48 8b 85 d8 ff ff ff 	mov    -0x28(%rbp),%rax
     f80:	48 8b 00             	mov    (%rax),%rax
     f83:	48 89 85 b0 ff ff ff 	mov    %rax,-0x50(%rbp)
     f8a:	48 8d 85 88 fe ff ff 	lea    -0x178(%rbp),%rax
     f91:	48 89 85 a8 ff ff ff 	mov    %rax,-0x58(%rbp)
     f98:	48 8b 85 b0 ff ff ff 	mov    -0x50(%rbp),%rax
     f9f:	48 8b 8d a8 ff ff ff 	mov    -0x58(%rbp),%rcx
     fa6:	48 89 01             	mov    %rax,(%rcx)
     fa9:	e9 43 00 00 00       	jmp    ff1 <io_uint_to_str+0x150>
     fae:	48 8b 85 e0 ff ff ff 	mov    -0x20(%rbp),%rax
     fb5:	48 8b 00             	mov    (%rax),%rax
     fb8:	48 89 85 a0 ff ff ff 	mov    %rax,-0x60(%rbp)
     fbf:	48 8b 85 a0 ff ff ff 	mov    -0x60(%rbp),%rax
     fc6:	48 89 85 98 ff ff ff 	mov    %rax,-0x68(%rbp)
     fcd:	48 b8 30 00 00 00 00 	movabs $0x30,%rax
     fd4:	00 00 00 
     fd7:	48 8b 8d 98 ff ff ff 	mov    -0x68(%rbp),%rcx
     fde:	89 01                	mov    %eax,(%rcx)
     fe0:	48 b8 01 00 00 00 00 	movabs $0x1,%rax
     fe7:	00 00 00 
     fea:	c9                   	leave
     feb:	c3                   	ret
     fec:	e9 6d ff ff ff       	jmp    f5e <io_uint_to_str+0xbd>
     ff1:	48 8b 85 a8 ff ff ff 	mov    -0x58(%rbp),%rax
     ff8:	48 8b 00             	mov    (%rax),%rax
     ffb:	48 89 85 90 ff ff ff 	mov    %rax,-0x70(%rbp)
    1002:	48 8b 85 90 ff ff ff 	mov    -0x70(%rbp),%rax
    1009:	48 31 c9             	xor    %rcx,%rcx
    100c:	48 39 c8             	cmp    %rcx,%rax
    100f:	0f 9f c0             	setg   %al
    1012:	48 0f b6 c0          	movzbq %al,%rax
    1016:	88 85 88 ff ff ff    	mov    %al,-0x78(%rbp)
    101c:	0f b6 85 88 ff ff ff 	movzbl -0x78(%rbp),%eax
    1023:	48 85 c0             	test   %rax,%rax
    1026:	0f 84 ac 00 00 00    	je     10d8 <io_uint_to_str+0x237>
    102c:	e9 00 00 00 00       	jmp    1031 <io_uint_to_str+0x190>
    1031:	48 8b 85 a8 ff ff ff 	mov    -0x58(%rbp),%rax
    1038:	48 8b 00             	mov    (%rax),%rax
    103b:	48 89 85 80 ff ff ff 	mov    %rax,-0x80(%rbp)
    1042:	48 8b 85 d0 ff ff ff 	mov    -0x30(%rbp),%rax
    1049:	48 8b 00             	mov    (%rax),%rax
    104c:	48 89 85 78 ff ff ff 	mov    %rax,-0x88(%rbp)
    1053:	48 8b 85 80 ff ff ff 	mov    -0x80(%rbp),%rax
    105a:	48 8b 8d 78 ff ff ff 	mov    -0x88(%rbp),%rcx
    1061:	48 99                	cqto
    1063:	48 f7 f9             	idiv   %rcx
    1066:	48 89 95 70 ff ff ff 	mov    %rdx,-0x90(%rbp)
    106d:	48 8d 85 80 fe ff ff 	lea    -0x180(%rbp),%rax
    1074:	48 89 85 68 ff ff ff 	mov    %rax,-0x98(%rbp)
    107b:	48 8b 85 70 ff ff ff 	mov    -0x90(%rbp),%rax
    1082:	48 8b 8d 68 ff ff ff 	mov    -0x98(%rbp),%rcx
    1089:	48 89 01             	mov    %rax,(%rcx)
    108c:	48 8b 85 68 ff ff ff 	mov    -0x98(%rbp),%rax
    1093:	48 8b 00             	mov    (%rax),%rax
    1096:	48 89 85 60 ff ff ff 	mov    %rax,-0xa0(%rbp)
    109d:	48 8b 85 60 ff ff ff 	mov    -0xa0(%rbp),%rax
    10a4:	48 b9 09 00 00 00 00 	movabs $0x9,%rcx
    10ab:	00 00 00 
    10ae:	48 39 c8             	cmp    %rcx,%rax
    10b1:	0f 9f c0             	setg   %al
    10b4:	48 0f b6 c0          	movzbq %al,%rax
    10b8:	88 85 58 ff ff ff    	mov    %al,-0xa8(%rbp)
    10be:	0f b6 85 58 ff ff ff 	movzbl -0xa8(%rbp),%eax
    10c5:	48 85 c0             	test   %rax,%rax
    10c8:	0f 84 71 01 00 00    	je     123f <io_uint_to_str+0x39e>
    10ce:	e9 db 00 00 00       	jmp    11ae <io_uint_to_str+0x30d>
    10d3:	e9 19 ff ff ff       	jmp    ff1 <io_uint_to_str+0x150>
    10d8:	48 8b 85 e0 ff ff ff 	mov    -0x20(%rbp),%rax
    10df:	48 8b 00             	mov    (%rax),%rax
    10e2:	48 89 85 50 ff ff ff 	mov    %rax,-0xb0(%rbp)
    10e9:	48 8b 85 b8 ff ff ff 	mov    -0x48(%rbp),%rax
    10f0:	48 8b 00             	mov    (%rax),%rax
    10f3:	48 89 85 48 ff ff ff 	mov    %rax,-0xb8(%rbp)
    10fa:	48 8b bd 50 ff ff ff 	mov    -0xb0(%rbp),%rdi
    1101:	48 8b b5 48 ff ff ff 	mov    -0xb8(%rbp),%rsi
    1108:	e8 00 00 00 00       	call   110d <io_uint_to_str+0x26c>
			1109: R_X86_64_PLT32	io_reverse_in_place-0x4
    110d:	48 8b 85 b8 ff ff ff 	mov    -0x48(%rbp),%rax
    1114:	48 8b 00             	mov    (%rax),%rax
    1117:	48 89 85 40 ff ff ff 	mov    %rax,-0xc0(%rbp)
    111e:	48 8b 85 40 ff ff ff 	mov    -0xc0(%rbp),%rax
    1125:	c9                   	leave
    1126:	c3                   	ret
    1127:	48 8b 85 d0 ff ff ff 	mov    -0x30(%rbp),%rax
    112e:	48 8b 00             	mov    (%rax),%rax
    1131:	48 89 85 38 ff ff ff 	mov    %rax,-0xc8(%rbp)
    1138:	48 8b 85 a8 ff ff ff 	mov    -0x58(%rbp),%rax
    113f:	48 8b 00             	mov    (%rax),%rax
    1142:	48 89 85 30 ff ff ff 	mov    %rax,-0xd0(%rbp)
    1149:	48 8b 85 30 ff ff ff 	mov    -0xd0(%rbp),%rax
    1150:	48 8b 8d 38 ff ff ff 	mov    -0xc8(%rbp),%rcx
    1157:	48 31 d2             	xor    %rdx,%rdx
    115a:	48 f7 f1             	div    %rcx
    115d:	48 89 85 28 ff ff ff 	mov    %rax,-0xd8(%rbp)
    1164:	48 8b 85 28 ff ff ff 	mov    -0xd8(%rbp),%rax
    116b:	48 8b 8d a8 ff ff ff 	mov    -0x58(%rbp),%rcx
    1172:	48 89 01             	mov    %rax,(%rcx)
    1175:	48 8b 85 b8 ff ff ff 	mov    -0x48(%rbp),%rax
    117c:	48 8b 00             	mov    (%rax),%rax
    117f:	48 89 85 20 ff ff ff 	mov    %rax,-0xe0(%rbp)
    1186:	48 8b 85 20 ff ff ff 	mov    -0xe0(%rbp),%rax
    118d:	48 83 c0 01          	add    $0x1,%rax
    1191:	48 89 85 18 ff ff ff 	mov    %rax,-0xe8(%rbp)
    1198:	48 8b 85 18 ff ff ff 	mov    -0xe8(%rbp),%rax
    119f:	48 8b 8d b8 ff ff ff 	mov    -0x48(%rbp),%rcx
    11a6:	48 89 01             	mov    %rax,(%rcx)
    11a9:	e9 43 fe ff ff       	jmp    ff1 <io_uint_to_str+0x150>
    11ae:	48 8b 85 e0 ff ff ff 	mov    -0x20(%rbp),%rax
    11b5:	48 8b 00             	mov    (%rax),%rax
    11b8:	48 89 85 10 ff ff ff 	mov    %rax,-0xf0(%rbp)
    11bf:	48 8b 85 b8 ff ff ff 	mov    -0x48(%rbp),%rax
    11c6:	48 8b 00             	mov    (%rax),%rax
    11c9:	48 89 85 08 ff ff ff 	mov    %rax,-0xf8(%rbp)
    11d0:	48 8b 85 10 ff ff ff 	mov    -0xf0(%rbp),%rax
    11d7:	48 8b 8d 08 ff ff ff 	mov    -0xf8(%rbp),%rcx
    11de:	48 01 c8             	add    %rcx,%rax
    11e1:	48 89 85 00 ff ff ff 	mov    %rax,-0x100(%rbp)
    11e8:	48 8b 85 68 ff ff ff 	mov    -0x98(%rbp),%rax
    11ef:	48 8b 00             	mov    (%rax),%rax
    11f2:	48 89 85 f8 fe ff ff 	mov    %rax,-0x108(%rbp)
    11f9:	48 8b 85 f8 fe ff ff 	mov    -0x108(%rbp),%rax
    1200:	48 83 e8 0a          	sub    $0xa,%rax
    1204:	48 89 85 f0 fe ff ff 	mov    %rax,-0x110(%rbp)
    120b:	48 8b 85 f0 fe ff ff 	mov    -0x110(%rbp),%rax
    1212:	48 83 c0 61          	add    $0x61,%rax
    1216:	48 89 85 e8 fe ff ff 	mov    %rax,-0x118(%rbp)
    121d:	48 8b 85 e8 fe ff ff 	mov    -0x118(%rbp),%rax
    1224:	88 85 e0 fe ff ff    	mov    %al,-0x120(%rbp)
    122a:	0f b6 85 e0 fe ff ff 	movzbl -0x120(%rbp),%eax
    1231:	48 8b 8d 00 ff ff ff 	mov    -0x100(%rbp),%rcx
    1238:	88 01                	mov    %al,(%rcx)
    123a:	e9 e8 fe ff ff       	jmp    1127 <io_uint_to_str+0x286>
    123f:	48 8b 85 e0 ff ff ff 	mov    -0x20(%rbp),%rax
    1246:	48 8b 00             	mov    (%rax),%rax
    1249:	48 89 85 d8 fe ff ff 	mov    %rax,-0x128(%rbp)
    1250:	48 8b 85 b8 ff ff ff 	mov    -0x48(%rbp),%rax
    1257:	48 8b 00             	mov    (%rax),%rax
    125a:	48 89 85 d0 fe ff ff 	mov    %rax,-0x130(%rbp)
    1261:	48 8b 85 d8 fe ff ff 	mov    -0x128(%rbp),%rax
    1268:	48 8b 8d d0 fe ff ff 	mov    -0x130(%rbp),%rcx
    126f:	48 01 c8             	add    %rcx,%rax
    1272:	48 89 85 c8 fe ff ff 	mov    %rax,-0x138(%rbp)
    1279:	48 8b 85 68 ff ff ff 	mov    -0x98(%rbp),%rax
    1280:	48 8b 00             	mov    (%rax),%rax
    1283:	48 89 85 c0 fe ff ff 	mov    %rax,-0x140(%rbp)
    128a:	48 8b 85 c0 fe ff ff 	mov    -0x140(%rbp),%rax
    1291:	48 83 c0 30          	add    $0x30,%rax
    1295:	48 89 85 b8 fe ff ff 	mov    %rax,-0x148(%rbp)
    129c:	48 8b 85 b8 fe ff ff 	mov    -0x148(%rbp),%rax
    12a3:	88 85 b0 fe ff ff    	mov    %al,-0x150(%rbp)
    12a9:	0f b6 85 b0 fe ff ff 	movzbl -0x150(%rbp),%eax
    12b0:	48 8b 8d c8 fe ff ff 	mov    -0x138(%rbp),%rcx
    12b7:	88 01                	mov    %al,(%rcx)
    12b9:	e9 69 fe ff ff       	jmp    1127 <io_uint_to_str+0x286>

00000000000012be <io_printf>:
    12be:	55                   	push   %rbp
    12bf:	48 89 e5             	mov    %rsp,%rbp
    12c2:	48 81 ec 70 05 00 00 	sub    $0x570,%rsp
    12c9:	48 89 bd f8 ff ff ff 	mov    %rdi,-0x8(%rbp)
    12d0:	48 89 bd 90 fa ff ff 	mov    %rdi,-0x570(%rbp)
    12d7:	48 89 b5 98 fa ff ff 	mov    %rsi,-0x568(%rbp)
    12de:	48 89 95 a0 fa ff ff 	mov    %rdx,-0x560(%rbp)
    12e5:	48 89 8d a8 fa ff ff 	mov    %rcx,-0x558(%rbp)
    12ec:	4c 89 85 b0 fa ff ff 	mov    %r8,-0x550(%rbp)
    12f3:	4c 89 8d b8 fa ff ff 	mov    %r9,-0x548(%rbp)
    12fa:	f2 0f 11 85 c0 fa ff 	movsd  %xmm0,-0x540(%rbp)
    1301:	ff 
    1302:	f2 0f 11 8d d0 fa ff 	movsd  %xmm1,-0x530(%rbp)
    1309:	ff 
    130a:	f2 0f 11 95 e0 fa ff 	movsd  %xmm2,-0x520(%rbp)
    1311:	ff 
    1312:	f2 0f 11 9d f0 fa ff 	movsd  %xmm3,-0x510(%rbp)
    1319:	ff 
    131a:	f2 0f 11 a5 00 fb ff 	movsd  %xmm4,-0x500(%rbp)
    1321:	ff 
    1322:	f2 0f 11 ad 10 fb ff 	movsd  %xmm5,-0x4f0(%rbp)
    1329:	ff 
    132a:	f2 0f 11 b5 20 fb ff 	movsd  %xmm6,-0x4e0(%rbp)
    1331:	ff 
    1332:	f2 0f 11 bd 30 fb ff 	movsd  %xmm7,-0x4d0(%rbp)
    1339:	ff 
    133a:	48 8d 85 f0 fb ff ff 	lea    -0x410(%rbp),%rax
    1341:	48 89 85 f0 ff ff ff 	mov    %rax,-0x10(%rbp)
    1348:	48 8b 85 f8 ff ff ff 	mov    -0x8(%rbp),%rax
    134f:	48 8b 8d f0 ff ff ff 	mov    -0x10(%rbp),%rcx
    1356:	48 89 01             	mov    %rax,(%rcx)
    1359:	48 8d 85 d8 fb ff ff 	lea    -0x428(%rbp),%rax
    1360:	48 89 85 e8 ff ff ff 	mov    %rax,-0x18(%rbp)
    1367:	48 8b 85 e8 ff ff ff 	mov    -0x18(%rbp),%rax
    136e:	48 89 85 e0 ff ff ff 	mov    %rax,-0x20(%rbp)
    1375:	48 8b 85 e0 ff ff ff 	mov    -0x20(%rbp),%rax
    137c:	c7 00 08 00 00 00    	movl   $0x8,(%rax)
    1382:	c7 40 04 30 00 00 00 	movl   $0x30,0x4(%rax)
    1389:	48 8d 8d 10 00 00 00 	lea    0x10(%rbp),%rcx
    1390:	48 89 48 08          	mov    %rcx,0x8(%rax)
    1394:	48 8d 8d 90 fa ff ff 	lea    -0x570(%rbp),%rcx
    139b:	48 89 48 10          	mov    %rcx,0x10(%rax)
    139f:	48 8d 85 d0 fb ff ff 	lea    -0x430(%rbp),%rax
    13a6:	48 89 85 d8 ff ff ff 	mov    %rax,-0x28(%rbp)
    13ad:	48 8b 85 e8 ff ff ff 	mov    -0x18(%rbp),%rax
    13b4:	48 8b 8d d8 ff ff ff 	mov    -0x28(%rbp),%rcx
    13bb:	48 89 01             	mov    %rax,(%rcx)
    13be:	48 8b 85 f0 ff ff ff 	mov    -0x10(%rbp),%rax
    13c5:	48 8b 00             	mov    (%rax),%rax
    13c8:	48 89 85 d0 ff ff ff 	mov    %rax,-0x30(%rbp)
    13cf:	48 8d 85 c8 fb ff ff 	lea    -0x438(%rbp),%rax
    13d6:	48 89 85 c8 ff ff ff 	mov    %rax,-0x38(%rbp)
    13dd:	48 8b 85 d0 ff ff ff 	mov    -0x30(%rbp),%rax
    13e4:	48 8b 8d c8 ff ff ff 	mov    -0x38(%rbp),%rcx
    13eb:	48 89 01             	mov    %rax,(%rcx)
    13ee:	48 8b 85 c8 ff ff ff 	mov    -0x38(%rbp),%rax
    13f5:	48 8b 00             	mov    (%rax),%rax
    13f8:	48 89 85 c0 ff ff ff 	mov    %rax,-0x40(%rbp)
    13ff:	48 8b bd c0 ff ff ff 	mov    -0x40(%rbp),%rdi
    1406:	48 31 c0             	xor    %rax,%rax
    1409:	48 31 c9             	xor    %rcx,%rcx
    140c:	80 3c 07 00          	cmpb   $0x0,(%rdi,%rax,1)
    1410:	74 04                	je     1416 <io_printf+0x158>
    1412:	48 ff c0             	inc    %rax
    1415:	eb f5                	jmp    140c <io_printf+0x14e>
    1417:	48 89 85 b8 ff ff ff 	mov    %rax,-0x48(%rbp)
    141e:	48 8d 85 c0 fb ff ff 	lea    -0x440(%rbp),%rax
    1425:	48 89 85 b0 ff ff ff 	mov    %rax,-0x50(%rbp)
    142c:	48 8b 85 b8 ff ff ff 	mov    -0x48(%rbp),%rax
    1433:	48 8b 8d b0 ff ff ff 	mov    -0x50(%rbp),%rcx
    143a:	48 89 01             	mov    %rax,(%rcx)
    143d:	48 8d 85 b8 fb ff ff 	lea    -0x448(%rbp),%rax
    1444:	48 89 85 a8 ff ff ff 	mov    %rax,-0x58(%rbp)
    144b:	48 31 c0             	xor    %rax,%rax
    144e:	48 8b 8d a8 ff ff ff 	mov    -0x58(%rbp),%rcx
    1455:	48 89 01             	mov    %rax,(%rcx)
    1458:	48 8d 05 00 00 00 00 	lea    0x0(%rip),%rax        # 145f <io_printf+0x1a1>
			145b: R_X86_64_PC32	io_NUM_BUF_SIZE-0x4
    145f:	48 8b 00             	mov    (%rax),%rax
    1462:	48 89 85 a0 ff ff ff 	mov    %rax,-0x60(%rbp)
    1469:	48 8d 85 b0 fb ff ff 	lea    -0x450(%rbp),%rax
    1470:	48 89 85 98 ff ff ff 	mov    %rax,-0x68(%rbp)
    1477:	48 8d 85 a8 fb ff ff 	lea    -0x458(%rbp),%rax
    147e:	48 89 85 90 ff ff ff 	mov    %rax,-0x70(%rbp)
    1485:	48 8b 85 98 ff ff ff 	mov    -0x68(%rbp),%rax
    148c:	48 8b 8d 90 ff ff ff 	mov    -0x70(%rbp),%rcx
    1493:	48 89 01             	mov    %rax,(%rcx)
    1496:	e9 00 00 00 00       	jmp    149b <io_printf+0x1dd>
    149b:	48 8b 85 a8 ff ff ff 	mov    -0x58(%rbp),%rax
    14a2:	48 8b 00             	mov    (%rax),%rax
    14a5:	48 89 85 88 ff ff ff 	mov    %rax,-0x78(%rbp)
    14ac:	48 8b 85 b0 ff ff ff 	mov    -0x50(%rbp),%rax
    14b3:	48 8b 00             	mov    (%rax),%rax
    14b6:	48 89 85 80 ff ff ff 	mov    %rax,-0x80(%rbp)
    14bd:	48 8b 85 88 ff ff ff 	mov    -0x78(%rbp),%rax
    14c4:	48 8b 8d 80 ff ff ff 	mov    -0x80(%rbp),%rcx
    14cb:	48 39 c8             	cmp    %rcx,%rax
    14ce:	0f 9c c0             	setl   %al
    14d1:	48 0f b6 c0          	movzbq %al,%rax
    14d5:	88 85 78 ff ff ff    	mov    %al,-0x88(%rbp)
    14db:	0f b6 85 78 ff ff ff 	movzbl -0x88(%rbp),%eax
    14e2:	48 85 c0             	test   %rax,%rax
    14e5:	0f 84 ba 00 00 00    	je     15a5 <io_printf+0x2e7>
    14eb:	e9 00 00 00 00       	jmp    14f0 <io_printf+0x232>
    14f0:	48 8b 85 c8 ff ff ff 	mov    -0x38(%rbp),%rax
    14f7:	48 8b 00             	mov    (%rax),%rax
    14fa:	48 89 85 70 ff ff ff 	mov    %rax,-0x90(%rbp)
    1501:	48 8b 85 a8 ff ff ff 	mov    -0x58(%rbp),%rax
    1508:	48 8b 00             	mov    (%rax),%rax
    150b:	48 89 85 68 ff ff ff 	mov    %rax,-0x98(%rbp)
    1512:	48 8b 85 70 ff ff ff 	mov    -0x90(%rbp),%rax
    1519:	48 8b 8d 68 ff ff ff 	mov    -0x98(%rbp),%rcx
    1520:	48 01 c8             	add    %rcx,%rax
    1523:	48 89 85 60 ff ff ff 	mov    %rax,-0xa0(%rbp)
    152a:	48 8b 85 60 ff ff ff 	mov    -0xa0(%rbp),%rax
    1531:	48 0f b6 00          	movzbq (%rax),%rax
    1535:	88 85 58 ff ff ff    	mov    %al,-0xa8(%rbp)
    153b:	48 8d 85 a0 fb ff ff 	lea    -0x460(%rbp),%rax
    1542:	48 89 85 50 ff ff ff 	mov    %rax,-0xb0(%rbp)
    1549:	0f b6 85 58 ff ff ff 	movzbl -0xa8(%rbp),%eax
    1550:	48 8b 8d 50 ff ff ff 	mov    -0xb0(%rbp),%rcx
    1557:	88 01                	mov    %al,(%rcx)
    1559:	48 8b 85 50 ff ff ff 	mov    -0xb0(%rbp),%rax
    1560:	48 0f b6 00          	movzbq (%rax),%rax
    1564:	88 85 48 ff ff ff    	mov    %al,-0xb8(%rbp)
    156a:	0f b6 85 48 ff ff ff 	movzbl -0xb8(%rbp),%eax
    1571:	48 b9 25 00 00 00 00 	movabs $0x25,%rcx
    1578:	00 00 00 
    157b:	48 39 c8             	cmp    %rcx,%rax
    157e:	0f 94 c0             	sete   %al
    1581:	48 0f b6 c0          	movzbq %al,%rax
    1585:	88 85 40 ff ff ff    	mov    %al,-0xc0(%rbp)
    158b:	0f b6 85 40 ff ff ff 	movzbl -0xc0(%rbp),%eax
    1592:	48 85 c0             	test   %rax,%rax
    1595:	0f 84 df 00 00 00    	je     167a <io_printf+0x3bc>
    159b:	e9 51 00 00 00       	jmp    15f1 <io_printf+0x333>
    15a0:	e9 f6 fe ff ff       	jmp    149b <io_printf+0x1dd>
    15a5:	48 8b 85 d8 ff ff ff 	mov    -0x28(%rbp),%rax
    15ac:	48 8b 00             	mov    (%rax),%rax
    15af:	48 89 85 38 ff ff ff 	mov    %rax,-0xc8(%rbp)
    15b6:	c9                   	leave
    15b7:	c3                   	ret
    15b8:	48 8b 85 a8 ff ff ff 	mov    -0x58(%rbp),%rax
    15bf:	48 8b 00             	mov    (%rax),%rax
    15c2:	48 89 85 30 ff ff ff 	mov    %rax,-0xd0(%rbp)
    15c9:	48 8b 85 30 ff ff ff 	mov    -0xd0(%rbp),%rax
    15d0:	48 83 c0 01          	add    $0x1,%rax
    15d4:	48 89 85 28 ff ff ff 	mov    %rax,-0xd8(%rbp)
    15db:	48 8b 85 28 ff ff ff 	mov    -0xd8(%rbp),%rax
    15e2:	48 8b 8d a8 ff ff ff 	mov    -0x58(%rbp),%rcx
    15e9:	48 89 01             	mov    %rax,(%rcx)
    15ec:	e9 aa fe ff ff       	jmp    149b <io_printf+0x1dd>
    15f1:	48 8b 85 a8 ff ff ff 	mov    -0x58(%rbp),%rax
    15f8:	48 8b 00             	mov    (%rax),%rax
    15fb:	48 89 85 20 ff ff ff 	mov    %rax,-0xe0(%rbp)
    1602:	48 8b 85 20 ff ff ff 	mov    -0xe0(%rbp),%rax
    1609:	48 83 c0 01          	add    $0x1,%rax
    160d:	48 89 85 18 ff ff ff 	mov    %rax,-0xe8(%rbp)
    1614:	48 8b 85 18 ff ff ff 	mov    -0xe8(%rbp),%rax
    161b:	48 8b 8d a8 ff ff ff 	mov    -0x58(%rbp),%rcx
    1622:	48 89 01             	mov    %rax,(%rcx)
    1625:	48 8b 85 a8 ff ff ff 	mov    -0x58(%rbp),%rax
    162c:	48 8b 00             	mov    (%rax),%rax
    162f:	48 89 85 10 ff ff ff 	mov    %rax,-0xf0(%rbp)
    1636:	48 8b 85 b0 ff ff ff 	mov    -0x50(%rbp),%rax
    163d:	48 8b 00             	mov    (%rax),%rax
    1640:	48 89 85 08 ff ff ff 	mov    %rax,-0xf8(%rbp)
    1647:	48 8b 85 10 ff ff ff 	mov    -0xf0(%rbp),%rax
    164e:	48 8b 8d 08 ff ff ff 	mov    -0xf8(%rbp),%rcx
    1655:	48 39 c8             	cmp    %rcx,%rax
    1658:	0f 9d c0             	setge  %al
    165b:	48 0f b6 c0          	movzbq %al,%rax
    165f:	88 85 00 ff ff ff    	mov    %al,-0x100(%rbp)
    1665:	0f b6 85 00 ff ff ff 	movzbl -0x100(%rbp),%eax
    166c:	48 85 c0             	test   %rax,%rax
    166f:	0f 84 00 01 00 00    	je     1775 <io_printf+0x4b7>
    1675:	e9 f6 00 00 00       	jmp    1770 <io_printf+0x4b2>
    167a:	48 8d 05 00 00 00 00 	lea    0x0(%rip),%rax        # 1681 <io_printf+0x3c3>
			167d: R_X86_64_PC32	io_STDOUT-0x4
    1681:	48 8b 00             	mov    (%rax),%rax
    1684:	48 89 85 f8 fe ff ff 	mov    %rax,-0x108(%rbp)
    168b:	48 8b 85 f8 fe ff ff 	mov    -0x108(%rbp),%rax
    1692:	89 85 f0 fe ff ff    	mov    %eax,-0x110(%rbp)
    1698:	48 8b 85 50 ff ff ff 	mov    -0xb0(%rbp),%rax
    169f:	48 0f b6 00          	movzbq (%rax),%rax
    16a3:	88 85 e8 fe ff ff    	mov    %al,-0x118(%rbp)
    16a9:	8b bd f0 fe ff ff    	mov    -0x110(%rbp),%edi
    16af:	0f b6 b5 e8 fe ff ff 	movzbl -0x118(%rbp),%esi
    16b6:	e8 00 00 00 00       	call   16bb <io_printf+0x3fd>
			16b7: R_X86_64_PLT32	io_write_byte-0x4
    16bb:	e9 f8 fe ff ff       	jmp    15b8 <io_printf+0x2fa>
    16c0:	48 8b 85 c8 ff ff ff 	mov    -0x38(%rbp),%rax
    16c7:	48 8b 00             	mov    (%rax),%rax
    16ca:	48 89 85 e0 fe ff ff 	mov    %rax,-0x120(%rbp)
    16d1:	48 8b 85 a8 ff ff ff 	mov    -0x58(%rbp),%rax
    16d8:	48 8b 00             	mov    (%rax),%rax
    16db:	48 89 85 d8 fe ff ff 	mov    %rax,-0x128(%rbp)
    16e2:	48 8b 85 e0 fe ff ff 	mov    -0x120(%rbp),%rax
    16e9:	48 8b 8d d8 fe ff ff 	mov    -0x128(%rbp),%rcx
    16f0:	48 01 c8             	add    %rcx,%rax
    16f3:	48 89 85 d0 fe ff ff 	mov    %rax,-0x130(%rbp)
    16fa:	48 8b 85 d0 fe ff ff 	mov    -0x130(%rbp),%rax
    1701:	48 0f b6 00          	movzbq (%rax),%rax
    1705:	88 85 c8 fe ff ff    	mov    %al,-0x138(%rbp)
    170b:	48 8d 85 98 fb ff ff 	lea    -0x468(%rbp),%rax
    1712:	48 89 85 c0 fe ff ff 	mov    %rax,-0x140(%rbp)
    1719:	0f b6 85 c8 fe ff ff 	movzbl -0x138(%rbp),%eax
    1720:	48 8b 8d c0 fe ff ff 	mov    -0x140(%rbp),%rcx
    1727:	88 01                	mov    %al,(%rcx)
    1729:	48 8b 85 c0 fe ff ff 	mov    -0x140(%rbp),%rax
    1730:	48 0f b6 00          	movzbq (%rax),%rax
    1734:	88 85 b8 fe ff ff    	mov    %al,-0x148(%rbp)
    173a:	0f b6 85 b8 fe ff ff 	movzbl -0x148(%rbp),%eax
    1741:	48 b9 73 00 00 00 00 	movabs $0x73,%rcx
    1748:	00 00 00 
    174b:	48 39 c8             	cmp    %rcx,%rax
    174e:	0f 94 c0             	sete   %al
    1751:	48 0f b6 c0          	movzbq %al,%rax
    1755:	88 85 b0 fe ff ff    	mov    %al,-0x150(%rbp)
    175b:	0f b6 85 b0 fe ff ff 	movzbl -0x150(%rbp),%eax
    1762:	48 85 c0             	test   %rax,%rax
    1765:	0f 84 19 08 00 00    	je     1f84 <io_printf+0xcc6>
    176b:	e9 95 00 00 00       	jmp    1805 <io_printf+0x547>
    1770:	e9 30 fe ff ff       	jmp    15a5 <io_printf+0x2e7>
    1775:	e9 46 ff ff ff       	jmp    16c0 <io_printf+0x402>
    177a:	e9 39 fe ff ff       	jmp    15b8 <io_printf+0x2fa>
    177f:	48 8d 05 00 00 00 00 	lea    0x0(%rip),%rax        # 1786 <io_printf+0x4c8>
			1782: R_X86_64_PC32	io_STDOUT-0x4
    1786:	48 8b 00             	mov    (%rax),%rax
    1789:	48 89 85 a8 fe ff ff 	mov    %rax,-0x158(%rbp)
    1790:	48 8b 85 a8 fe ff ff 	mov    -0x158(%rbp),%rax
    1797:	89 85 a0 fe ff ff    	mov    %eax,-0x160(%rbp)
    179d:	48 b8 25 00 00 00 00 	movabs $0x25,%rax
    17a4:	00 00 00 
    17a7:	88 85 98 fe ff ff    	mov    %al,-0x168(%rbp)
    17ad:	8b bd a0 fe ff ff    	mov    -0x160(%rbp),%edi
    17b3:	0f b6 b5 98 fe ff ff 	movzbl -0x168(%rbp),%esi
    17ba:	e8 00 00 00 00       	call   17bf <io_printf+0x501>
			17bb: R_X86_64_PLT32	io_write_byte-0x4
    17bf:	48 8d 05 00 00 00 00 	lea    0x0(%rip),%rax        # 17c6 <io_printf+0x508>
			17c2: R_X86_64_PC32	io_STDOUT-0x4
    17c6:	48 8b 00             	mov    (%rax),%rax
    17c9:	48 89 85 90 fe ff ff 	mov    %rax,-0x170(%rbp)
    17d0:	48 8b 85 90 fe ff ff 	mov    -0x170(%rbp),%rax
    17d7:	89 85 88 fe ff ff    	mov    %eax,-0x178(%rbp)
    17dd:	48 8b 85 c0 fe ff ff 	mov    -0x140(%rbp),%rax
    17e4:	48 0f b6 00          	movzbq (%rax),%rax
    17e8:	88 85 80 fe ff ff    	mov    %al,-0x180(%rbp)
    17ee:	8b bd 88 fe ff ff    	mov    -0x178(%rbp),%edi
    17f4:	0f b6 b5 80 fe ff ff 	movzbl -0x180(%rbp),%esi
    17fb:	e8 00 00 00 00       	call   1800 <io_printf+0x542>
			17fc: R_X86_64_PLT32	io_write_byte-0x4
    1800:	e9 75 ff ff ff       	jmp    177a <io_printf+0x4bc>
    1805:	48 8b 85 d8 ff ff ff 	mov    -0x28(%rbp),%rax
    180c:	48 8b 00             	mov    (%rax),%rax
    180f:	48 89 85 78 fe ff ff 	mov    %rax,-0x188(%rbp)
    1816:	48 8b 85 78 fe ff ff 	mov    -0x188(%rbp),%rax
    181d:	49 89 c2             	mov    %rax,%r10
    1820:	41 8b 0a             	mov    (%r10),%ecx
    1823:	83 f9 30             	cmp    $0x30,%ecx
    1826:	0f 83 19 00 00 00    	jae    1845 <io_printf+0x587>
    182c:	49 8b 52 10          	mov    0x10(%r10),%rdx
    1830:	48 01 ca             	add    %rcx,%rdx
    1833:	48 8b 02             	mov    (%rdx),%rax
    1836:	83 c1 08             	add    $0x8,%ecx
    1839:	41 89 0a             	mov    %ecx,(%r10)
    183c:	48 89 85 70 fe ff ff 	mov    %rax,-0x190(%rbp)
    1843:	eb 16                	jmp    185b <io_printf+0x59d>
    1845:	49 8b 4a 08          	mov    0x8(%r10),%rcx
    1849:	48 8b 01             	mov    (%rcx),%rax
    184c:	48 83 c1 08          	add    $0x8,%rcx
    1850:	49 89 4a 08          	mov    %rcx,0x8(%r10)
    1854:	48 89 85 70 fe ff ff 	mov    %rax,-0x190(%rbp)
    185b:	48 8d 85 90 fb ff ff 	lea    -0x470(%rbp),%rax
    1862:	48 89 85 68 fe ff ff 	mov    %rax,-0x198(%rbp)
    1869:	48 8b 85 70 fe ff ff 	mov    -0x190(%rbp),%rax
    1870:	48 8b 8d 68 fe ff ff 	mov    -0x198(%rbp),%rcx
    1877:	48 89 01             	mov    %rax,(%rcx)
    187a:	48 8b 85 68 fe ff ff 	mov    -0x198(%rbp),%rax
    1881:	48 8b 00             	mov    (%rax),%rax
    1884:	48 89 85 60 fe ff ff 	mov    %rax,-0x1a0(%rbp)
    188b:	48 8b bd 60 fe ff ff 	mov    -0x1a0(%rbp),%rdi
    1892:	48 31 c0             	xor    %rax,%rax
    1895:	48 31 c9             	xor    %rcx,%rcx
    1898:	80 3c 07 00          	cmpb   $0x0,(%rdi,%rax,1)
    189c:	74 04                	je     18a2 <io_printf+0x5e4>
    189e:	48 ff c0             	inc    %rax
    18a1:	eb f5                	jmp    1898 <io_printf+0x5da>
    18a3:	48 89 85 58 fe ff ff 	mov    %rax,-0x1a8(%rbp)
    18aa:	48 8d 85 88 fb ff ff 	lea    -0x478(%rbp),%rax
    18b1:	48 89 85 50 fe ff ff 	mov    %rax,-0x1b0(%rbp)
    18b8:	48 8b 85 58 fe ff ff 	mov    -0x1a8(%rbp),%rax
    18bf:	48 8b 8d 50 fe ff ff 	mov    -0x1b0(%rbp),%rcx
    18c6:	48 89 01             	mov    %rax,(%rcx)
    18c9:	48 8d 05 00 00 00 00 	lea    0x0(%rip),%rax        # 18d0 <io_printf+0x612>
			18cc: R_X86_64_PC32	io_STDOUT-0x4
    18d0:	48 8b 00             	mov    (%rax),%rax
    18d3:	48 89 85 48 fe ff ff 	mov    %rax,-0x1b8(%rbp)
    18da:	48 8b 85 48 fe ff ff 	mov    -0x1b8(%rbp),%rax
    18e1:	89 85 40 fe ff ff    	mov    %eax,-0x1c0(%rbp)
    18e7:	48 8b 85 68 fe ff ff 	mov    -0x198(%rbp),%rax
    18ee:	48 8b 00             	mov    (%rax),%rax
    18f1:	48 89 85 38 fe ff ff 	mov    %rax,-0x1c8(%rbp)
    18f8:	48 8b 85 50 fe ff ff 	mov    -0x1b0(%rbp),%rax
    18ff:	48 8b 00             	mov    (%rax),%rax
    1902:	48 89 85 30 fe ff ff 	mov    %rax,-0x1d0(%rbp)
    1909:	8b bd 40 fe ff ff    	mov    -0x1c0(%rbp),%edi
    190f:	48 8b b5 38 fe ff ff 	mov    -0x1c8(%rbp),%rsi
    1916:	48 8b 95 30 fe ff ff 	mov    -0x1d0(%rbp),%rdx
    191d:	e8 00 00 00 00       	call   1922 <io_printf+0x664>
			191e: R_X86_64_PLT32	io_write-0x4
    1922:	48 89 85 28 fe ff ff 	mov    %rax,-0x1d8(%rbp)
    1929:	e9 4c fe ff ff       	jmp    177a <io_printf+0x4bc>
    192e:	48 8b 85 d8 ff ff ff 	mov    -0x28(%rbp),%rax
    1935:	48 8b 00             	mov    (%rax),%rax
    1938:	48 89 85 20 fe ff ff 	mov    %rax,-0x1e0(%rbp)
    193f:	48 8b 85 20 fe ff ff 	mov    -0x1e0(%rbp),%rax
    1946:	49 89 c2             	mov    %rax,%r10
    1949:	41 8b 0a             	mov    (%r10),%ecx
    194c:	83 f9 30             	cmp    $0x30,%ecx
    194f:	0f 83 17 00 00 00    	jae    196c <io_printf+0x6ae>
    1955:	49 8b 52 10          	mov    0x10(%r10),%rdx
    1959:	48 01 ca             	add    %rcx,%rdx
    195c:	8b 02                	mov    (%rdx),%eax
    195e:	83 c1 08             	add    $0x8,%ecx
    1961:	41 89 0a             	mov    %ecx,(%r10)
    1964:	89 85 18 fe ff ff    	mov    %eax,-0x1e8(%rbp)
    196a:	eb 14                	jmp    1980 <io_printf+0x6c2>
    196c:	49 8b 4a 08          	mov    0x8(%r10),%rcx
    1970:	8b 01                	mov    (%rcx),%eax
    1972:	48 83 c1 08          	add    $0x8,%rcx
    1976:	49 89 4a 08          	mov    %rcx,0x8(%r10)
    197a:	89 85 18 fe ff ff    	mov    %eax,-0x1e8(%rbp)
    1980:	48 8d 85 80 fb ff ff 	lea    -0x480(%rbp),%rax
    1987:	48 89 85 10 fe ff ff 	mov    %rax,-0x1f0(%rbp)
    198e:	8b 85 18 fe ff ff    	mov    -0x1e8(%rbp),%eax
    1994:	48 8b 8d 10 fe ff ff 	mov    -0x1f0(%rbp),%rcx
    199b:	89 01                	mov    %eax,(%rcx)
    199d:	48 8d 05 00 00 00 00 	lea    0x0(%rip),%rax        # 19a4 <io_printf+0x6e6>
			19a0: R_X86_64_PC32	io_STDOUT-0x4
    19a4:	48 8b 00             	mov    (%rax),%rax
    19a7:	48 89 85 08 fe ff ff 	mov    %rax,-0x1f8(%rbp)
    19ae:	48 8b 85 08 fe ff ff 	mov    -0x1f8(%rbp),%rax
    19b5:	89 85 00 fe ff ff    	mov    %eax,-0x200(%rbp)
    19bb:	48 8b 85 10 fe ff ff 	mov    -0x1f0(%rbp),%rax
    19c2:	8b 00                	mov    (%rax),%eax
    19c4:	89 85 f8 fd ff ff    	mov    %eax,-0x208(%rbp)
    19ca:	8b 85 f8 fd ff ff    	mov    -0x208(%rbp),%eax
    19d0:	88 85 f0 fd ff ff    	mov    %al,-0x210(%rbp)
    19d6:	8b bd 00 fe ff ff    	mov    -0x200(%rbp),%edi
    19dc:	0f b6 b5 f0 fd ff ff 	movzbl -0x210(%rbp),%esi
    19e3:	e8 00 00 00 00       	call   19e8 <io_printf+0x72a>
			19e4: R_X86_64_PLT32	io_write_byte-0x4
    19e8:	e9 8d fd ff ff       	jmp    177a <io_printf+0x4bc>
    19ed:	48 8b 85 d8 ff ff ff 	mov    -0x28(%rbp),%rax
    19f4:	48 8b 00             	mov    (%rax),%rax
    19f7:	48 89 85 e8 fd ff ff 	mov    %rax,-0x218(%rbp)
    19fe:	48 8b 85 e8 fd ff ff 	mov    -0x218(%rbp),%rax
    1a05:	49 89 c2             	mov    %rax,%r10
    1a08:	41 8b 0a             	mov    (%r10),%ecx
    1a0b:	83 f9 30             	cmp    $0x30,%ecx
    1a0e:	0f 83 17 00 00 00    	jae    1a2b <io_printf+0x76d>
    1a14:	49 8b 52 10          	mov    0x10(%r10),%rdx
    1a18:	48 01 ca             	add    %rcx,%rdx
    1a1b:	8b 02                	mov    (%rdx),%eax
    1a1d:	83 c1 08             	add    $0x8,%ecx
    1a20:	41 89 0a             	mov    %ecx,(%r10)
    1a23:	89 85 e0 fd ff ff    	mov    %eax,-0x220(%rbp)
    1a29:	eb 14                	jmp    1a3f <io_printf+0x781>
    1a2b:	49 8b 4a 08          	mov    0x8(%r10),%rcx
    1a2f:	8b 01                	mov    (%rcx),%eax
    1a31:	48 83 c1 08          	add    $0x8,%rcx
    1a35:	49 89 4a 08          	mov    %rcx,0x8(%r10)
    1a39:	89 85 e0 fd ff ff    	mov    %eax,-0x220(%rbp)
    1a3f:	48 8d 85 78 fb ff ff 	lea    -0x488(%rbp),%rax
    1a46:	48 89 85 d8 fd ff ff 	mov    %rax,-0x228(%rbp)
    1a4d:	8b 85 e0 fd ff ff    	mov    -0x220(%rbp),%eax
    1a53:	48 8b 8d d8 fd ff ff 	mov    -0x228(%rbp),%rcx
    1a5a:	89 01                	mov    %eax,(%rcx)
    1a5c:	48 8b 85 90 ff ff ff 	mov    -0x70(%rbp),%rax
    1a63:	48 8b 00             	mov    (%rax),%rax
    1a66:	48 89 85 d0 fd ff ff 	mov    %rax,-0x230(%rbp)
    1a6d:	48 8b 85 d8 fd ff ff 	mov    -0x228(%rbp),%rax
    1a74:	8b 00                	mov    (%rax),%eax
    1a76:	89 85 c8 fd ff ff    	mov    %eax,-0x238(%rbp)
    1a7c:	8b 85 c8 fd ff ff    	mov    -0x238(%rbp),%eax
    1a82:	48 63 c0             	movslq %eax,%rax
    1a85:	48 89 85 c0 fd ff ff 	mov    %rax,-0x240(%rbp)
    1a8c:	48 8b bd d0 fd ff ff 	mov    -0x230(%rbp),%rdi
    1a93:	48 8b b5 c0 fd ff ff 	mov    -0x240(%rbp),%rsi
    1a9a:	48 ba 0a 00 00 00 00 	movabs $0xa,%rdx
    1aa1:	00 00 00 
    1aa4:	e8 00 00 00 00       	call   1aa9 <io_printf+0x7eb>
			1aa5: R_X86_64_PLT32	io_int_to_str-0x4
    1aa9:	48 89 85 b8 fd ff ff 	mov    %rax,-0x248(%rbp)
    1ab0:	48 8d 85 70 fb ff ff 	lea    -0x490(%rbp),%rax
    1ab7:	48 89 85 b0 fd ff ff 	mov    %rax,-0x250(%rbp)
    1abe:	48 8b 85 b8 fd ff ff 	mov    -0x248(%rbp),%rax
    1ac5:	48 8b 8d b0 fd ff ff 	mov    -0x250(%rbp),%rcx
    1acc:	48 89 01             	mov    %rax,(%rcx)
    1acf:	48 8d 05 00 00 00 00 	lea    0x0(%rip),%rax        # 1ad6 <io_printf+0x818>
			1ad2: R_X86_64_PC32	io_STDOUT-0x4
    1ad6:	48 8b 00             	mov    (%rax),%rax
    1ad9:	48 89 85 a8 fd ff ff 	mov    %rax,-0x258(%rbp)
    1ae0:	48 8b 85 a8 fd ff ff 	mov    -0x258(%rbp),%rax
    1ae7:	89 85 a0 fd ff ff    	mov    %eax,-0x260(%rbp)
    1aed:	48 8b 85 90 ff ff ff 	mov    -0x70(%rbp),%rax
    1af4:	48 8b 00             	mov    (%rax),%rax
    1af7:	48 89 85 98 fd ff ff 	mov    %rax,-0x268(%rbp)
    1afe:	48 8b 85 b0 fd ff ff 	mov    -0x250(%rbp),%rax
    1b05:	48 8b 00             	mov    (%rax),%rax
    1b08:	48 89 85 90 fd ff ff 	mov    %rax,-0x270(%rbp)
    1b0f:	8b bd a0 fd ff ff    	mov    -0x260(%rbp),%edi
    1b15:	48 8b b5 98 fd ff ff 	mov    -0x268(%rbp),%rsi
    1b1c:	48 8b 95 90 fd ff ff 	mov    -0x270(%rbp),%rdx
    1b23:	e8 00 00 00 00       	call   1b28 <io_printf+0x86a>
			1b24: R_X86_64_PLT32	io_write-0x4
    1b28:	48 89 85 88 fd ff ff 	mov    %rax,-0x278(%rbp)
    1b2f:	e9 46 fc ff ff       	jmp    177a <io_printf+0x4bc>
    1b34:	48 8b 85 d8 ff ff ff 	mov    -0x28(%rbp),%rax
    1b3b:	48 8b 00             	mov    (%rax),%rax
    1b3e:	48 89 85 80 fd ff ff 	mov    %rax,-0x280(%rbp)
    1b45:	48 8b 85 80 fd ff ff 	mov    -0x280(%rbp),%rax
    1b4c:	49 89 c2             	mov    %rax,%r10
    1b4f:	41 8b 0a             	mov    (%r10),%ecx
    1b52:	83 f9 30             	cmp    $0x30,%ecx
    1b55:	0f 83 17 00 00 00    	jae    1b72 <io_printf+0x8b4>
    1b5b:	49 8b 52 10          	mov    0x10(%r10),%rdx
    1b5f:	48 01 ca             	add    %rcx,%rdx
    1b62:	8b 02                	mov    (%rdx),%eax
    1b64:	83 c1 08             	add    $0x8,%ecx
    1b67:	41 89 0a             	mov    %ecx,(%r10)
    1b6a:	89 85 78 fd ff ff    	mov    %eax,-0x288(%rbp)
    1b70:	eb 14                	jmp    1b86 <io_printf+0x8c8>
    1b72:	49 8b 4a 08          	mov    0x8(%r10),%rcx
    1b76:	8b 01                	mov    (%rcx),%eax
    1b78:	48 83 c1 08          	add    $0x8,%rcx
    1b7c:	49 89 4a 08          	mov    %rcx,0x8(%r10)
    1b80:	89 85 78 fd ff ff    	mov    %eax,-0x288(%rbp)
    1b86:	48 8d 85 68 fb ff ff 	lea    -0x498(%rbp),%rax
    1b8d:	48 89 85 70 fd ff ff 	mov    %rax,-0x290(%rbp)
    1b94:	8b 85 78 fd ff ff    	mov    -0x288(%rbp),%eax
    1b9a:	48 8b 8d 70 fd ff ff 	mov    -0x290(%rbp),%rcx
    1ba1:	89 01                	mov    %eax,(%rcx)
    1ba3:	48 8b 85 90 ff ff ff 	mov    -0x70(%rbp),%rax
    1baa:	48 8b 00             	mov    (%rax),%rax
    1bad:	48 89 85 68 fd ff ff 	mov    %rax,-0x298(%rbp)
    1bb4:	48 8b 85 70 fd ff ff 	mov    -0x290(%rbp),%rax
    1bbb:	8b 00                	mov    (%rax),%eax
    1bbd:	89 85 60 fd ff ff    	mov    %eax,-0x2a0(%rbp)
    1bc3:	8b 85 60 fd ff ff    	mov    -0x2a0(%rbp),%eax
    1bc9:	48 63 c0             	movslq %eax,%rax
    1bcc:	48 89 85 58 fd ff ff 	mov    %rax,-0x2a8(%rbp)
    1bd3:	48 8b bd 68 fd ff ff 	mov    -0x298(%rbp),%rdi
    1bda:	48 8b b5 58 fd ff ff 	mov    -0x2a8(%rbp),%rsi
    1be1:	48 ba 0a 00 00 00 00 	movabs $0xa,%rdx
    1be8:	00 00 00 
    1beb:	e8 00 00 00 00       	call   1bf0 <io_printf+0x932>
			1bec: R_X86_64_PLT32	io_uint_to_str-0x4
    1bf0:	48 89 85 50 fd ff ff 	mov    %rax,-0x2b0(%rbp)
    1bf7:	48 8d 85 60 fb ff ff 	lea    -0x4a0(%rbp),%rax
    1bfe:	48 89 85 48 fd ff ff 	mov    %rax,-0x2b8(%rbp)
    1c05:	48 8b 85 50 fd ff ff 	mov    -0x2b0(%rbp),%rax
    1c0c:	48 8b 8d 48 fd ff ff 	mov    -0x2b8(%rbp),%rcx
    1c13:	48 89 01             	mov    %rax,(%rcx)
    1c16:	48 8d 05 00 00 00 00 	lea    0x0(%rip),%rax        # 1c1d <io_printf+0x95f>
			1c19: R_X86_64_PC32	io_STDOUT-0x4
    1c1d:	48 8b 00             	mov    (%rax),%rax
    1c20:	48 89 85 40 fd ff ff 	mov    %rax,-0x2c0(%rbp)
    1c27:	48 8b 85 40 fd ff ff 	mov    -0x2c0(%rbp),%rax
    1c2e:	89 85 38 fd ff ff    	mov    %eax,-0x2c8(%rbp)
    1c34:	48 8b 85 90 ff ff ff 	mov    -0x70(%rbp),%rax
    1c3b:	48 8b 00             	mov    (%rax),%rax
    1c3e:	48 89 85 30 fd ff ff 	mov    %rax,-0x2d0(%rbp)
    1c45:	48 8b 85 48 fd ff ff 	mov    -0x2b8(%rbp),%rax
    1c4c:	48 8b 00             	mov    (%rax),%rax
    1c4f:	48 89 85 28 fd ff ff 	mov    %rax,-0x2d8(%rbp)
    1c56:	8b bd 38 fd ff ff    	mov    -0x2c8(%rbp),%edi
    1c5c:	48 8b b5 30 fd ff ff 	mov    -0x2d0(%rbp),%rsi
    1c63:	48 8b 95 28 fd ff ff 	mov    -0x2d8(%rbp),%rdx
    1c6a:	e8 00 00 00 00       	call   1c6f <io_printf+0x9b1>
			1c6b: R_X86_64_PLT32	io_write-0x4
    1c6f:	48 89 85 20 fd ff ff 	mov    %rax,-0x2e0(%rbp)
    1c76:	e9 ff fa ff ff       	jmp    177a <io_printf+0x4bc>
    1c7b:	48 8b 85 d8 ff ff ff 	mov    -0x28(%rbp),%rax
    1c82:	48 8b 00             	mov    (%rax),%rax
    1c85:	48 89 85 18 fd ff ff 	mov    %rax,-0x2e8(%rbp)
    1c8c:	48 8b 85 18 fd ff ff 	mov    -0x2e8(%rbp),%rax
    1c93:	49 89 c2             	mov    %rax,%r10
    1c96:	41 8b 0a             	mov    (%r10),%ecx
    1c99:	83 f9 30             	cmp    $0x30,%ecx
    1c9c:	0f 83 17 00 00 00    	jae    1cb9 <io_printf+0x9fb>
    1ca2:	49 8b 52 10          	mov    0x10(%r10),%rdx
    1ca6:	48 01 ca             	add    %rcx,%rdx
    1ca9:	8b 02                	mov    (%rdx),%eax
    1cab:	83 c1 08             	add    $0x8,%ecx
    1cae:	41 89 0a             	mov    %ecx,(%r10)
    1cb1:	89 85 10 fd ff ff    	mov    %eax,-0x2f0(%rbp)
    1cb7:	eb 14                	jmp    1ccd <io_printf+0xa0f>
    1cb9:	49 8b 4a 08          	mov    0x8(%r10),%rcx
    1cbd:	8b 01                	mov    (%rcx),%eax
    1cbf:	48 83 c1 08          	add    $0x8,%rcx
    1cc3:	49 89 4a 08          	mov    %rcx,0x8(%r10)
    1cc7:	89 85 10 fd ff ff    	mov    %eax,-0x2f0(%rbp)
    1ccd:	48 8d 85 58 fb ff ff 	lea    -0x4a8(%rbp),%rax
    1cd4:	48 89 85 08 fd ff ff 	mov    %rax,-0x2f8(%rbp)
    1cdb:	8b 85 10 fd ff ff    	mov    -0x2f0(%rbp),%eax
    1ce1:	48 8b 8d 08 fd ff ff 	mov    -0x2f8(%rbp),%rcx
    1ce8:	89 01                	mov    %eax,(%rcx)
    1cea:	48 8b 85 90 ff ff ff 	mov    -0x70(%rbp),%rax
    1cf1:	48 8b 00             	mov    (%rax),%rax
    1cf4:	48 89 85 00 fd ff ff 	mov    %rax,-0x300(%rbp)
    1cfb:	48 8b 85 08 fd ff ff 	mov    -0x2f8(%rbp),%rax
    1d02:	8b 00                	mov    (%rax),%eax
    1d04:	89 85 f8 fc ff ff    	mov    %eax,-0x308(%rbp)
    1d0a:	8b 85 f8 fc ff ff    	mov    -0x308(%rbp),%eax
    1d10:	48 63 c0             	movslq %eax,%rax
    1d13:	48 89 85 f0 fc ff ff 	mov    %rax,-0x310(%rbp)
    1d1a:	48 8b bd 00 fd ff ff 	mov    -0x300(%rbp),%rdi
    1d21:	48 8b b5 f0 fc ff ff 	mov    -0x310(%rbp),%rsi
    1d28:	48 ba 10 00 00 00 00 	movabs $0x10,%rdx
    1d2f:	00 00 00 
    1d32:	e8 00 00 00 00       	call   1d37 <io_printf+0xa79>
			1d33: R_X86_64_PLT32	io_uint_to_str-0x4
    1d37:	48 89 85 e8 fc ff ff 	mov    %rax,-0x318(%rbp)
    1d3e:	48 8d 85 50 fb ff ff 	lea    -0x4b0(%rbp),%rax
    1d45:	48 89 85 e0 fc ff ff 	mov    %rax,-0x320(%rbp)
    1d4c:	48 8b 85 e8 fc ff ff 	mov    -0x318(%rbp),%rax
    1d53:	48 8b 8d e0 fc ff ff 	mov    -0x320(%rbp),%rcx
    1d5a:	48 89 01             	mov    %rax,(%rcx)
    1d5d:	48 8d 05 00 00 00 00 	lea    0x0(%rip),%rax        # 1d64 <io_printf+0xaa6>
			1d60: R_X86_64_PC32	io_STDOUT-0x4
    1d64:	48 8b 00             	mov    (%rax),%rax
    1d67:	48 89 85 d8 fc ff ff 	mov    %rax,-0x328(%rbp)
    1d6e:	48 8b 85 d8 fc ff ff 	mov    -0x328(%rbp),%rax
    1d75:	89 85 d0 fc ff ff    	mov    %eax,-0x330(%rbp)
    1d7b:	48 8b 85 90 ff ff ff 	mov    -0x70(%rbp),%rax
    1d82:	48 8b 00             	mov    (%rax),%rax
    1d85:	48 89 85 c8 fc ff ff 	mov    %rax,-0x338(%rbp)
    1d8c:	48 8b 85 e0 fc ff ff 	mov    -0x320(%rbp),%rax
    1d93:	48 8b 00             	mov    (%rax),%rax
    1d96:	48 89 85 c0 fc ff ff 	mov    %rax,-0x340(%rbp)
    1d9d:	8b bd d0 fc ff ff    	mov    -0x330(%rbp),%edi
    1da3:	48 8b b5 c8 fc ff ff 	mov    -0x338(%rbp),%rsi
    1daa:	48 8b 95 c0 fc ff ff 	mov    -0x340(%rbp),%rdx
    1db1:	e8 00 00 00 00       	call   1db6 <io_printf+0xaf8>
			1db2: R_X86_64_PLT32	io_write-0x4
    1db6:	48 89 85 b8 fc ff ff 	mov    %rax,-0x348(%rbp)
    1dbd:	e9 b8 f9 ff ff       	jmp    177a <io_printf+0x4bc>
    1dc2:	48 8b 85 d8 ff ff ff 	mov    -0x28(%rbp),%rax
    1dc9:	48 8b 00             	mov    (%rax),%rax
    1dcc:	48 89 85 b0 fc ff ff 	mov    %rax,-0x350(%rbp)
    1dd3:	48 8b 85 b0 fc ff ff 	mov    -0x350(%rbp),%rax
    1dda:	49 89 c2             	mov    %rax,%r10
    1ddd:	41 8b 0a             	mov    (%r10),%ecx
    1de0:	83 f9 30             	cmp    $0x30,%ecx
    1de3:	0f 83 19 00 00 00    	jae    1e02 <io_printf+0xb44>
    1de9:	49 8b 52 10          	mov    0x10(%r10),%rdx
    1ded:	48 01 ca             	add    %rcx,%rdx
    1df0:	48 8b 02             	mov    (%rdx),%rax
    1df3:	83 c1 08             	add    $0x8,%ecx
    1df6:	41 89 0a             	mov    %ecx,(%r10)
    1df9:	48 89 85 a8 fc ff ff 	mov    %rax,-0x358(%rbp)
    1e00:	eb 16                	jmp    1e18 <io_printf+0xb5a>
    1e02:	49 8b 4a 08          	mov    0x8(%r10),%rcx
    1e06:	48 8b 01             	mov    (%rcx),%rax
    1e09:	48 83 c1 08          	add    $0x8,%rcx
    1e0d:	49 89 4a 08          	mov    %rcx,0x8(%r10)
    1e11:	48 89 85 a8 fc ff ff 	mov    %rax,-0x358(%rbp)
    1e18:	48 8d 85 48 fb ff ff 	lea    -0x4b8(%rbp),%rax
    1e1f:	48 89 85 a0 fc ff ff 	mov    %rax,-0x360(%rbp)
    1e26:	48 8b 85 a8 fc ff ff 	mov    -0x358(%rbp),%rax
    1e2d:	48 8b 8d a0 fc ff ff 	mov    -0x360(%rbp),%rcx
    1e34:	48 89 01             	mov    %rax,(%rcx)
    1e37:	48 8d 05 00 00 00 00 	lea    0x0(%rip),%rax        # 1e3e <io_printf+0xb80>
			1e3a: R_X86_64_PC32	io_STDOUT-0x4
    1e3e:	48 8b 00             	mov    (%rax),%rax
    1e41:	48 89 85 98 fc ff ff 	mov    %rax,-0x368(%rbp)
    1e48:	48 8b 85 98 fc ff ff 	mov    -0x368(%rbp),%rax
    1e4f:	89 85 90 fc ff ff    	mov    %eax,-0x370(%rbp)
    1e55:	48 8d 05 00 00 00 00 	lea    0x0(%rip),%rax        # 1e5c <io_printf+0xb9e>
			1e58: R_X86_64_PC32	.str.6-0x4
    1e5c:	48 89 85 88 fc ff ff 	mov    %rax,-0x378(%rbp)
    1e63:	8b bd 90 fc ff ff    	mov    -0x370(%rbp),%edi
    1e69:	48 8b b5 88 fc ff ff 	mov    -0x378(%rbp),%rsi
    1e70:	e8 00 00 00 00       	call   1e75 <io_printf+0xbb7>
			1e71: R_X86_64_PLT32	io_write_str-0x4
    1e75:	48 8b 85 90 ff ff ff 	mov    -0x70(%rbp),%rax
    1e7c:	48 8b 00             	mov    (%rax),%rax
    1e7f:	48 89 85 80 fc ff ff 	mov    %rax,-0x380(%rbp)
    1e86:	48 8b 85 a0 fc ff ff 	mov    -0x360(%rbp),%rax
    1e8d:	48 8b 00             	mov    (%rax),%rax
    1e90:	48 89 85 78 fc ff ff 	mov    %rax,-0x388(%rbp)
    1e97:	48 8b bd 80 fc ff ff 	mov    -0x380(%rbp),%rdi
    1e9e:	48 8b b5 78 fc ff ff 	mov    -0x388(%rbp),%rsi
    1ea5:	48 ba 10 00 00 00 00 	movabs $0x10,%rdx
    1eac:	00 00 00 
    1eaf:	e8 00 00 00 00       	call   1eb4 <io_printf+0xbf6>
			1eb0: R_X86_64_PLT32	io_uint_to_str-0x4
    1eb4:	48 89 85 70 fc ff ff 	mov    %rax,-0x390(%rbp)
    1ebb:	48 8d 85 40 fb ff ff 	lea    -0x4c0(%rbp),%rax
    1ec2:	48 89 85 68 fc ff ff 	mov    %rax,-0x398(%rbp)
    1ec9:	48 8b 85 70 fc ff ff 	mov    -0x390(%rbp),%rax
    1ed0:	48 8b 8d 68 fc ff ff 	mov    -0x398(%rbp),%rcx
    1ed7:	48 89 01             	mov    %rax,(%rcx)
    1eda:	48 8d 05 00 00 00 00 	lea    0x0(%rip),%rax        # 1ee1 <io_printf+0xc23>
			1edd: R_X86_64_PC32	io_STDOUT-0x4
    1ee1:	48 8b 00             	mov    (%rax),%rax
    1ee4:	48 89 85 60 fc ff ff 	mov    %rax,-0x3a0(%rbp)
    1eeb:	48 8b 85 60 fc ff ff 	mov    -0x3a0(%rbp),%rax
    1ef2:	89 85 58 fc ff ff    	mov    %eax,-0x3a8(%rbp)
    1ef8:	48 8b 85 90 ff ff ff 	mov    -0x70(%rbp),%rax
    1eff:	48 8b 00             	mov    (%rax),%rax
    1f02:	48 89 85 50 fc ff ff 	mov    %rax,-0x3b0(%rbp)
    1f09:	48 8b 85 68 fc ff ff 	mov    -0x398(%rbp),%rax
    1f10:	48 8b 00             	mov    (%rax),%rax
    1f13:	48 89 85 48 fc ff ff 	mov    %rax,-0x3b8(%rbp)
    1f1a:	8b bd 58 fc ff ff    	mov    -0x3a8(%rbp),%edi
    1f20:	48 8b b5 50 fc ff ff 	mov    -0x3b0(%rbp),%rsi
    1f27:	48 8b 95 48 fc ff ff 	mov    -0x3b8(%rbp),%rdx
    1f2e:	e8 00 00 00 00       	call   1f33 <io_printf+0xc75>
			1f2f: R_X86_64_PLT32	io_write-0x4
    1f33:	48 89 85 40 fc ff ff 	mov    %rax,-0x3c0(%rbp)
    1f3a:	e9 3b f8 ff ff       	jmp    177a <io_printf+0x4bc>
    1f3f:	48 8d 05 00 00 00 00 	lea    0x0(%rip),%rax        # 1f46 <io_printf+0xc88>
			1f42: R_X86_64_PC32	io_STDOUT-0x4
    1f46:	48 8b 00             	mov    (%rax),%rax
    1f49:	48 89 85 38 fc ff ff 	mov    %rax,-0x3c8(%rbp)
    1f50:	48 8b 85 38 fc ff ff 	mov    -0x3c8(%rbp),%rax
    1f57:	89 85 30 fc ff ff    	mov    %eax,-0x3d0(%rbp)
    1f5d:	48 b8 25 00 00 00 00 	movabs $0x25,%rax
    1f64:	00 00 00 
    1f67:	88 85 28 fc ff ff    	mov    %al,-0x3d8(%rbp)
    1f6d:	8b bd 30 fc ff ff    	mov    -0x3d0(%rbp),%edi
    1f73:	0f b6 b5 28 fc ff ff 	movzbl -0x3d8(%rbp),%esi
    1f7a:	e8 00 00 00 00       	call   1f7f <io_printf+0xcc1>
			1f7b: R_X86_64_PLT32	io_write_byte-0x4
    1f7f:	e9 f6 f7 ff ff       	jmp    177a <io_printf+0x4bc>
    1f84:	0f b6 85 b8 fe ff ff 	movzbl -0x148(%rbp),%eax
    1f8b:	48 b9 63 00 00 00 00 	movabs $0x63,%rcx
    1f92:	00 00 00 
    1f95:	48 39 c8             	cmp    %rcx,%rax
    1f98:	0f 94 c0             	sete   %al
    1f9b:	48 0f b6 c0          	movzbq %al,%rax
    1f9f:	88 85 20 fc ff ff    	mov    %al,-0x3e0(%rbp)
    1fa5:	0f b6 85 20 fc ff ff 	movzbl -0x3e0(%rbp),%eax
    1fac:	48 85 c0             	test   %rax,%rax
    1faf:	0f 84 05 00 00 00    	je     1fba <io_printf+0xcfc>
    1fb5:	e9 74 f9 ff ff       	jmp    192e <io_printf+0x670>
    1fba:	0f b6 85 b8 fe ff ff 	movzbl -0x148(%rbp),%eax
    1fc1:	48 b9 64 00 00 00 00 	movabs $0x64,%rcx
    1fc8:	00 00 00 
    1fcb:	48 39 c8             	cmp    %rcx,%rax
    1fce:	0f 94 c0             	sete   %al
    1fd1:	48 0f b6 c0          	movzbq %al,%rax
    1fd5:	88 85 18 fc ff ff    	mov    %al,-0x3e8(%rbp)
    1fdb:	0f b6 85 18 fc ff ff 	movzbl -0x3e8(%rbp),%eax
    1fe2:	48 85 c0             	test   %rax,%rax
    1fe5:	0f 84 05 00 00 00    	je     1ff0 <io_printf+0xd32>
    1feb:	e9 fd f9 ff ff       	jmp    19ed <io_printf+0x72f>
    1ff0:	0f b6 85 b8 fe ff ff 	movzbl -0x148(%rbp),%eax
    1ff7:	48 b9 75 00 00 00 00 	movabs $0x75,%rcx
    1ffe:	00 00 00 
    2001:	48 39 c8             	cmp    %rcx,%rax
    2004:	0f 94 c0             	sete   %al
    2007:	48 0f b6 c0          	movzbq %al,%rax
    200b:	88 85 10 fc ff ff    	mov    %al,-0x3f0(%rbp)
    2011:	0f b6 85 10 fc ff ff 	movzbl -0x3f0(%rbp),%eax
    2018:	48 85 c0             	test   %rax,%rax
    201b:	0f 84 05 00 00 00    	je     2026 <io_printf+0xd68>
    2021:	e9 0e fb ff ff       	jmp    1b34 <io_printf+0x876>
    2026:	0f b6 85 b8 fe ff ff 	movzbl -0x148(%rbp),%eax
    202d:	48 b9 78 00 00 00 00 	movabs $0x78,%rcx
    2034:	00 00 00 
    2037:	48 39 c8             	cmp    %rcx,%rax
    203a:	0f 94 c0             	sete   %al
    203d:	48 0f b6 c0          	movzbq %al,%rax
    2041:	88 85 08 fc ff ff    	mov    %al,-0x3f8(%rbp)
    2047:	0f b6 85 08 fc ff ff 	movzbl -0x3f8(%rbp),%eax
    204e:	48 85 c0             	test   %rax,%rax
    2051:	0f 84 05 00 00 00    	je     205c <io_printf+0xd9e>
    2057:	e9 1f fc ff ff       	jmp    1c7b <io_printf+0x9bd>
    205c:	0f b6 85 b8 fe ff ff 	movzbl -0x148(%rbp),%eax
    2063:	48 b9 70 00 00 00 00 	movabs $0x70,%rcx
    206a:	00 00 00 
    206d:	48 39 c8             	cmp    %rcx,%rax
    2070:	0f 94 c0             	sete   %al
    2073:	48 0f b6 c0          	movzbq %al,%rax
    2077:	88 85 00 fc ff ff    	mov    %al,-0x400(%rbp)
    207d:	0f b6 85 00 fc ff ff 	movzbl -0x400(%rbp),%eax
    2084:	48 85 c0             	test   %rax,%rax
    2087:	0f 84 05 00 00 00    	je     2092 <io_printf+0xdd4>
    208d:	e9 30 fd ff ff       	jmp    1dc2 <io_printf+0xb04>
    2092:	0f b6 85 b8 fe ff ff 	movzbl -0x148(%rbp),%eax
    2099:	48 b9 25 00 00 00 00 	movabs $0x25,%rcx
    20a0:	00 00 00 
    20a3:	48 39 c8             	cmp    %rcx,%rax
    20a6:	0f 94 c0             	sete   %al
    20a9:	48 0f b6 c0          	movzbq %al,%rax
    20ad:	88 85 f8 fb ff ff    	mov    %al,-0x408(%rbp)
    20b3:	0f b6 85 f8 fb ff ff 	movzbl -0x408(%rbp),%eax
    20ba:	48 85 c0             	test   %rax,%rax
    20bd:	0f 84 bc f6 ff ff    	je     177f <io_printf+0x4c1>
    20c3:	e9 77 fe ff ff       	jmp    1f3f <io_printf+0xc81>

00000000000020c8 <io_read_line>:
    20c8:	55                   	push   %rbp
    20c9:	48 89 e5             	mov    %rsp,%rbp
    20cc:	48 81 ec 50 01 00 00 	sub    $0x150,%rsp
    20d3:	48 89 bd f8 ff ff ff 	mov    %rdi,-0x8(%rbp)
    20da:	48 89 b5 f0 ff ff ff 	mov    %rsi,-0x10(%rbp)
    20e1:	48 8d 85 e8 fe ff ff 	lea    -0x118(%rbp),%rax
    20e8:	48 89 85 e8 ff ff ff 	mov    %rax,-0x18(%rbp)
    20ef:	48 8b 85 f8 ff ff ff 	mov    -0x8(%rbp),%rax
    20f6:	48 8b 8d e8 ff ff ff 	mov    -0x18(%rbp),%rcx
    20fd:	48 89 01             	mov    %rax,(%rcx)
    2100:	48 8d 85 e0 fe ff ff 	lea    -0x120(%rbp),%rax
    2107:	48 89 85 e0 ff ff ff 	mov    %rax,-0x20(%rbp)
    210e:	48 8b 85 f0 ff ff ff 	mov    -0x10(%rbp),%rax
    2115:	48 8b 8d e0 ff ff ff 	mov    -0x20(%rbp),%rcx
    211c:	48 89 01             	mov    %rax,(%rcx)
    211f:	48 8d 85 d8 fe ff ff 	lea    -0x128(%rbp),%rax
    2126:	48 89 85 d8 ff ff ff 	mov    %rax,-0x28(%rbp)
    212d:	48 31 c0             	xor    %rax,%rax
    2130:	48 8b 8d d8 ff ff ff 	mov    -0x28(%rbp),%rcx
    2137:	48 89 01             	mov    %rax,(%rcx)
    213a:	48 8d 85 d0 fe ff ff 	lea    -0x130(%rbp),%rax
    2141:	48 89 85 d0 ff ff ff 	mov    %rax,-0x30(%rbp)
    2148:	48 8d 85 c8 fe ff ff 	lea    -0x138(%rbp),%rax
    214f:	48 89 85 c8 ff ff ff 	mov    %rax,-0x38(%rbp)
    2156:	48 8b 85 d0 ff ff ff 	mov    -0x30(%rbp),%rax
    215d:	48 8b 8d c8 ff ff ff 	mov    -0x38(%rbp),%rcx
    2164:	48 89 01             	mov    %rax,(%rcx)
    2167:	e9 00 00 00 00       	jmp    216c <io_read_line+0xa4>
    216c:	48 8b 85 d8 ff ff ff 	mov    -0x28(%rbp),%rax
    2173:	48 8b 00             	mov    (%rax),%rax
    2176:	48 89 85 c0 ff ff ff 	mov    %rax,-0x40(%rbp)
    217d:	48 8b 85 e0 ff ff ff 	mov    -0x20(%rbp),%rax
    2184:	48 8b 00             	mov    (%rax),%rax
    2187:	48 89 85 b8 ff ff ff 	mov    %rax,-0x48(%rbp)
    218e:	48 8b 85 b8 ff ff ff 	mov    -0x48(%rbp),%rax
    2195:	48 83 e8 01          	sub    $0x1,%rax
    2199:	48 89 85 b0 ff ff ff 	mov    %rax,-0x50(%rbp)
    21a0:	48 8b 85 c0 ff ff ff 	mov    -0x40(%rbp),%rax
    21a7:	48 8b 8d b0 ff ff ff 	mov    -0x50(%rbp),%rcx
    21ae:	48 39 c8             	cmp    %rcx,%rax
    21b1:	0f 9c c0             	setl   %al
    21b4:	48 0f b6 c0          	movzbq %al,%rax
    21b8:	88 85 a8 ff ff ff    	mov    %al,-0x58(%rbp)
    21be:	0f b6 85 a8 ff ff ff 	movzbl -0x58(%rbp),%eax
    21c5:	48 85 c0             	test   %rax,%rax
    21c8:	0f 84 bb 00 00 00    	je     2289 <io_read_line+0x1c1>
    21ce:	e9 00 00 00 00       	jmp    21d3 <io_read_line+0x10b>
    21d3:	48 8d 05 00 00 00 00 	lea    0x0(%rip),%rax        # 21da <io_read_line+0x112>
			21d6: R_X86_64_PC32	io_STDIN-0x4
    21da:	48 8b 00             	mov    (%rax),%rax
    21dd:	48 89 85 a0 ff ff ff 	mov    %rax,-0x60(%rbp)
    21e4:	48 8b 85 a0 ff ff ff 	mov    -0x60(%rbp),%rax
    21eb:	89 85 98 ff ff ff    	mov    %eax,-0x68(%rbp)
    21f1:	48 8b 85 c8 ff ff ff 	mov    -0x38(%rbp),%rax
    21f8:	48 8b 00             	mov    (%rax),%rax
    21fb:	48 89 85 90 ff ff ff 	mov    %rax,-0x70(%rbp)
    2202:	8b bd 98 ff ff ff    	mov    -0x68(%rbp),%edi
    2208:	48 8b b5 90 ff ff ff 	mov    -0x70(%rbp),%rsi
    220f:	48 ba 01 00 00 00 00 	movabs $0x1,%rdx
    2216:	00 00 00 
    2219:	e8 00 00 00 00       	call   221e <io_read_line+0x156>
			221a: R_X86_64_PLT32	io_read-0x4
    221e:	48 89 85 88 ff ff ff 	mov    %rax,-0x78(%rbp)
    2225:	48 8d 85 c0 fe ff ff 	lea    -0x140(%rbp),%rax
    222c:	48 89 85 80 ff ff ff 	mov    %rax,-0x80(%rbp)
    2233:	48 8b 85 88 ff ff ff 	mov    -0x78(%rbp),%rax
    223a:	48 8b 8d 80 ff ff ff 	mov    -0x80(%rbp),%rcx
    2241:	48 89 01             	mov    %rax,(%rcx)
    2244:	48 8b 85 80 ff ff ff 	mov    -0x80(%rbp),%rax
    224b:	48 8b 00             	mov    (%rax),%rax
    224e:	48 89 85 78 ff ff ff 	mov    %rax,-0x88(%rbp)
    2255:	48 8b 85 78 ff ff ff 	mov    -0x88(%rbp),%rax
    225c:	48 31 c9             	xor    %rcx,%rcx
    225f:	48 39 c8             	cmp    %rcx,%rax
    2262:	0f 9e c0             	setle  %al
    2265:	48 0f b6 c0          	movzbq %al,%rax
    2269:	88 85 70 ff ff ff    	mov    %al,-0x90(%rbp)
    226f:	0f b6 85 70 ff ff ff 	movzbl -0x90(%rbp),%eax
    2276:	48 85 c0             	test   %rax,%rax
    2279:	0f 84 04 01 00 00    	je     2383 <io_read_line+0x2bb>
    227f:	e9 fa 00 00 00       	jmp    237e <io_read_line+0x2b6>
    2284:	e9 e3 fe ff ff       	jmp    216c <io_read_line+0xa4>
    2289:	48 8b 85 e8 ff ff ff 	mov    -0x18(%rbp),%rax
    2290:	48 8b 00             	mov    (%rax),%rax
    2293:	48 89 85 68 ff ff ff 	mov    %rax,-0x98(%rbp)
    229a:	48 8b 85 d8 ff ff ff 	mov    -0x28(%rbp),%rax
    22a1:	48 8b 00             	mov    (%rax),%rax
    22a4:	48 89 85 60 ff ff ff 	mov    %rax,-0xa0(%rbp)
    22ab:	48 8b 85 68 ff ff ff 	mov    -0x98(%rbp),%rax
    22b2:	48 8b 8d 60 ff ff ff 	mov    -0xa0(%rbp),%rcx
    22b9:	48 01 c8             	add    %rcx,%rax
    22bc:	48 89 85 58 ff ff ff 	mov    %rax,-0xa8(%rbp)
    22c3:	48 31 c0             	xor    %rax,%rax
    22c6:	48 8b 8d 58 ff ff ff 	mov    -0xa8(%rbp),%rcx
    22cd:	89 01                	mov    %eax,(%rcx)
    22cf:	48 8b 85 d8 ff ff ff 	mov    -0x28(%rbp),%rax
    22d6:	48 8b 00             	mov    (%rax),%rax
    22d9:	48 89 85 50 ff ff ff 	mov    %rax,-0xb0(%rbp)
    22e0:	48 8b 85 50 ff ff ff 	mov    -0xb0(%rbp),%rax
    22e7:	c9                   	leave
    22e8:	c3                   	ret
    22e9:	48 8b 85 c8 ff ff ff 	mov    -0x38(%rbp),%rax
    22f0:	48 8b 00             	mov    (%rax),%rax
    22f3:	48 89 85 48 ff ff ff 	mov    %rax,-0xb8(%rbp)
    22fa:	48 8b 85 48 ff ff ff 	mov    -0xb8(%rbp),%rax
    2301:	48 89 85 40 ff ff ff 	mov    %rax,-0xc0(%rbp)
    2308:	48 8b 85 40 ff ff ff 	mov    -0xc0(%rbp),%rax
    230f:	48 0f b6 00          	movzbq (%rax),%rax
    2313:	88 85 38 ff ff ff    	mov    %al,-0xc8(%rbp)
    2319:	48 8d 85 b8 fe ff ff 	lea    -0x148(%rbp),%rax
    2320:	48 89 85 30 ff ff ff 	mov    %rax,-0xd0(%rbp)
    2327:	0f b6 85 38 ff ff ff 	movzbl -0xc8(%rbp),%eax
    232e:	48 8b 8d 30 ff ff ff 	mov    -0xd0(%rbp),%rcx
    2335:	88 01                	mov    %al,(%rcx)
    2337:	48 8b 85 30 ff ff ff 	mov    -0xd0(%rbp),%rax
    233e:	48 0f b6 00          	movzbq (%rax),%rax
    2342:	88 85 28 ff ff ff    	mov    %al,-0xd8(%rbp)
    2348:	0f b6 85 28 ff ff ff 	movzbl -0xd8(%rbp),%eax
    234f:	48 b9 0a 00 00 00 00 	movabs $0xa,%rcx
    2356:	00 00 00 
    2359:	48 39 c8             	cmp    %rcx,%rax
    235c:	0f 94 c0             	sete   %al
    235f:	48 0f b6 c0          	movzbq %al,%rax
    2363:	88 85 20 ff ff ff    	mov    %al,-0xe0(%rbp)
    2369:	0f b6 85 20 ff ff ff 	movzbl -0xe0(%rbp),%eax
    2370:	48 85 c0             	test   %rax,%rax
    2373:	0f 84 a8 00 00 00    	je     2421 <io_read_line+0x359>
    2379:	e9 9e 00 00 00       	jmp    241c <io_read_line+0x354>
    237e:	e9 06 ff ff ff       	jmp    2289 <io_read_line+0x1c1>
    2383:	e9 61 ff ff ff       	jmp    22e9 <io_read_line+0x221>
    2388:	48 8b 85 e8 ff ff ff 	mov    -0x18(%rbp),%rax
    238f:	48 8b 00             	mov    (%rax),%rax
    2392:	48 89 85 18 ff ff ff 	mov    %rax,-0xe8(%rbp)
    2399:	48 8b 85 d8 ff ff ff 	mov    -0x28(%rbp),%rax
    23a0:	48 8b 00             	mov    (%rax),%rax
    23a3:	48 89 85 10 ff ff ff 	mov    %rax,-0xf0(%rbp)
    23aa:	48 8b 85 18 ff ff ff 	mov    -0xe8(%rbp),%rax
    23b1:	48 8b 8d 10 ff ff ff 	mov    -0xf0(%rbp),%rcx
    23b8:	48 01 c8             	add    %rcx,%rax
    23bb:	48 89 85 08 ff ff ff 	mov    %rax,-0xf8(%rbp)
    23c2:	48 8b 85 30 ff ff ff 	mov    -0xd0(%rbp),%rax
    23c9:	48 0f b6 00          	movzbq (%rax),%rax
    23cd:	88 85 00 ff ff ff    	mov    %al,-0x100(%rbp)
    23d3:	0f b6 85 00 ff ff ff 	movzbl -0x100(%rbp),%eax
    23da:	48 8b 8d 08 ff ff ff 	mov    -0xf8(%rbp),%rcx
    23e1:	88 01                	mov    %al,(%rcx)
    23e3:	48 8b 85 d8 ff ff ff 	mov    -0x28(%rbp),%rax
    23ea:	48 8b 00             	mov    (%rax),%rax
    23ed:	48 89 85 f8 fe ff ff 	mov    %rax,-0x108(%rbp)
    23f4:	48 8b 85 f8 fe ff ff 	mov    -0x108(%rbp),%rax
    23fb:	48 83 c0 01          	add    $0x1,%rax
    23ff:	48 89 85 f0 fe ff ff 	mov    %rax,-0x110(%rbp)
    2406:	48 8b 85 f0 fe ff ff 	mov    -0x110(%rbp),%rax
    240d:	48 8b 8d d8 ff ff ff 	mov    -0x28(%rbp),%rcx
    2414:	48 89 01             	mov    %rax,(%rcx)
    2417:	e9 50 fd ff ff       	jmp    216c <io_read_line+0xa4>
    241c:	e9 68 fe ff ff       	jmp    2289 <io_read_line+0x1c1>
    2421:	e9 62 ff ff ff       	jmp    2388 <io_read_line+0x2c0>

0000000000002426 <main>:
    2426:	55                   	push   %rbp
    2427:	48 89 e5             	mov    %rsp,%rbp
    242a:	48 81 ec 10 02 00 00 	sub    $0x210,%rsp
    2431:	48 8d 05 00 00 00 00 	lea    0x0(%rip),%rax        # 2438 <main+0x12>
			2434: R_X86_64_PC32	.str.7-0x4
    2438:	48 89 85 f8 ff ff ff 	mov    %rax,-0x8(%rbp)
    243f:	48 8b bd f8 ff ff ff 	mov    -0x8(%rbp),%rdi
    2446:	e8 00 00 00 00       	call   244b <main+0x25>
			2447: R_X86_64_PLT32	io_println-0x4
    244b:	48 8d 05 00 00 00 00 	lea    0x0(%rip),%rax        # 2452 <main+0x2c>
			244e: R_X86_64_PC32	.str.8-0x4
    2452:	48 89 85 f0 ff ff ff 	mov    %rax,-0x10(%rbp)
    2459:	48 8b bd f0 ff ff ff 	mov    -0x10(%rbp),%rdi
    2460:	e8 00 00 00 00       	call   2465 <main+0x3f>
			2461: R_X86_64_PLT32	io_println-0x4
    2465:	48 8d 05 00 00 00 00 	lea    0x0(%rip),%rax        # 246c <main+0x46>
			2468: R_X86_64_PC32	.str.9-0x4
    246c:	48 89 85 e8 ff ff ff 	mov    %rax,-0x18(%rbp)
    2473:	48 8b bd e8 ff ff ff 	mov    -0x18(%rbp),%rdi
    247a:	e8 00 00 00 00       	call   247f <main+0x59>
			247b: R_X86_64_PLT32	io_printf-0x4
    247f:	48 8d 05 00 00 00 00 	lea    0x0(%rip),%rax        # 2486 <main+0x60>
			2482: R_X86_64_PC32	.str.10-0x4
    2486:	48 89 85 e0 ff ff ff 	mov    %rax,-0x20(%rbp)
    248d:	48 8b bd e0 ff ff ff 	mov    -0x20(%rbp),%rdi
    2494:	e8 00 00 00 00       	call   2499 <main+0x73>
			2495: R_X86_64_PLT32	io_println-0x4
    2499:	48 8d 05 00 00 00 00 	lea    0x0(%rip),%rax        # 24a0 <main+0x7a>
			249c: R_X86_64_PC32	.str.11-0x4
    24a0:	48 89 85 d8 ff ff ff 	mov    %rax,-0x28(%rbp)
    24a7:	48 8b bd d8 ff ff ff 	mov    -0x28(%rbp),%rdi
    24ae:	e8 00 00 00 00       	call   24b3 <main+0x8d>
			24af: R_X86_64_PLT32	io_println-0x4
    24b3:	48 8d 05 00 00 00 00 	lea    0x0(%rip),%rax        # 24ba <main+0x94>
			24b6: R_X86_64_PC32	.str.12-0x4
    24ba:	48 89 85 d0 ff ff ff 	mov    %rax,-0x30(%rbp)
    24c1:	48 8b bd d0 ff ff ff 	mov    -0x30(%rbp),%rdi
    24c8:	48 be 2a 00 00 00 00 	movabs $0x2a,%rsi
    24cf:	00 00 00 
    24d2:	e8 00 00 00 00       	call   24d7 <main+0xb1>
			24d3: R_X86_64_PLT32	io_printf-0x4
    24d7:	48 8d 05 00 00 00 00 	lea    0x0(%rip),%rax        # 24de <main+0xb8>
			24da: R_X86_64_PC32	.str.13-0x4
    24de:	48 89 85 c8 ff ff ff 	mov    %rax,-0x38(%rbp)
    24e5:	48 8b bd c8 ff ff ff 	mov    -0x38(%rbp),%rdi
    24ec:	e8 00 00 00 00       	call   24f1 <main+0xcb>
			24ed: R_X86_64_PLT32	io_println-0x4
    24f1:	48 8d 05 00 00 00 00 	lea    0x0(%rip),%rax        # 24f8 <main+0xd2>
			24f4: R_X86_64_PC32	.str.14-0x4
    24f8:	48 89 85 c0 ff ff ff 	mov    %rax,-0x40(%rbp)
    24ff:	48 8b bd c0 ff ff ff 	mov    -0x40(%rbp),%rdi
    2506:	e8 00 00 00 00       	call   250b <main+0xe5>
			2507: R_X86_64_PLT32	io_println-0x4
    250b:	48 8d 05 00 00 00 00 	lea    0x0(%rip),%rax        # 2512 <main+0xec>
			250e: R_X86_64_PC32	.str.15-0x4
    2512:	48 89 85 b8 ff ff ff 	mov    %rax,-0x48(%rbp)
    2519:	48 8b bd b8 ff ff ff 	mov    -0x48(%rbp),%rdi
    2520:	48 be 0a 00 00 00 00 	movabs $0xa,%rsi
    2527:	00 00 00 
    252a:	48 ba 14 00 00 00 00 	movabs $0x14,%rdx
    2531:	00 00 00 
    2534:	48 b9 1e 00 00 00 00 	movabs $0x1e,%rcx
    253b:	00 00 00 
    253e:	e8 00 00 00 00       	call   2543 <main+0x11d>
			253f: R_X86_64_PLT32	io_printf-0x4
    2543:	48 8d 05 00 00 00 00 	lea    0x0(%rip),%rax        # 254a <main+0x124>
			2546: R_X86_64_PC32	.str.16-0x4
    254a:	48 89 85 b0 ff ff ff 	mov    %rax,-0x50(%rbp)
    2551:	48 8b bd b0 ff ff ff 	mov    -0x50(%rbp),%rdi
    2558:	e8 00 00 00 00       	call   255d <main+0x137>
			2559: R_X86_64_PLT32	io_println-0x4
    255d:	48 8d 05 00 00 00 00 	lea    0x0(%rip),%rax        # 2564 <main+0x13e>
			2560: R_X86_64_PC32	.str.17-0x4
    2564:	48 89 85 a8 ff ff ff 	mov    %rax,-0x58(%rbp)
    256b:	48 8b bd a8 ff ff ff 	mov    -0x58(%rbp),%rdi
    2572:	e8 00 00 00 00       	call   2577 <main+0x151>
			2573: R_X86_64_PLT32	io_println-0x4
    2577:	48 8d 05 00 00 00 00 	lea    0x0(%rip),%rax        # 257e <main+0x158>
			257a: R_X86_64_PC32	.str.18-0x4
    257e:	48 89 85 a0 ff ff ff 	mov    %rax,-0x60(%rbp)
    2585:	48 31 c0             	xor    %rax,%rax
    2588:	48 81 e8 e7 03 00 00 	sub    $0x3e7,%rax
    258f:	48 89 85 98 ff ff ff 	mov    %rax,-0x68(%rbp)
    2596:	48 8b bd a0 ff ff ff 	mov    -0x60(%rbp),%rdi
    259d:	48 8b b5 98 ff ff ff 	mov    -0x68(%rbp),%rsi
    25a4:	e8 00 00 00 00       	call   25a9 <main+0x183>
			25a5: R_X86_64_PLT32	io_printf-0x4
    25a9:	48 8d 05 00 00 00 00 	lea    0x0(%rip),%rax        # 25b0 <main+0x18a>
			25ac: R_X86_64_PC32	.str.19-0x4
    25b0:	48 89 85 90 ff ff ff 	mov    %rax,-0x70(%rbp)
    25b7:	48 8b bd 90 ff ff ff 	mov    -0x70(%rbp),%rdi
    25be:	e8 00 00 00 00       	call   25c3 <main+0x19d>
			25bf: R_X86_64_PLT32	io_println-0x4
    25c3:	48 8d 05 00 00 00 00 	lea    0x0(%rip),%rax        # 25ca <main+0x1a4>
			25c6: R_X86_64_PC32	.str.20-0x4
    25ca:	48 89 85 88 ff ff ff 	mov    %rax,-0x78(%rbp)
    25d1:	48 8b bd 88 ff ff ff 	mov    -0x78(%rbp),%rdi
    25d8:	e8 00 00 00 00       	call   25dd <main+0x1b7>
			25d9: R_X86_64_PLT32	io_println-0x4
    25dd:	48 b8 00 28 6b ee 00 	movabs $0xee6b2800,%rax
    25e4:	00 00 00 
    25e7:	89 85 80 ff ff ff    	mov    %eax,-0x80(%rbp)
    25ed:	48 8d 85 48 fe ff ff 	lea    -0x1b8(%rbp),%rax
    25f4:	48 89 85 78 ff ff ff 	mov    %rax,-0x88(%rbp)
    25fb:	8b 85 80 ff ff ff    	mov    -0x80(%rbp),%eax
    2601:	48 8b 8d 78 ff ff ff 	mov    -0x88(%rbp),%rcx
    2608:	89 01                	mov    %eax,(%rcx)
    260a:	48 8d 05 00 00 00 00 	lea    0x0(%rip),%rax        # 2611 <main+0x1eb>
			260d: R_X86_64_PC32	.str.21-0x4
    2611:	48 89 85 70 ff ff ff 	mov    %rax,-0x90(%rbp)
    2618:	48 8b 85 78 ff ff ff 	mov    -0x88(%rbp),%rax
    261f:	8b 00                	mov    (%rax),%eax
    2621:	89 85 68 ff ff ff    	mov    %eax,-0x98(%rbp)
    2627:	48 8b bd 70 ff ff ff 	mov    -0x90(%rbp),%rdi
    262e:	8b b5 68 ff ff ff    	mov    -0x98(%rbp),%esi
    2634:	e8 00 00 00 00       	call   2639 <main+0x213>
			2635: R_X86_64_PLT32	io_printf-0x4
    2639:	48 8d 05 00 00 00 00 	lea    0x0(%rip),%rax        # 2640 <main+0x21a>
			263c: R_X86_64_PC32	.str.22-0x4
    2640:	48 89 85 60 ff ff ff 	mov    %rax,-0xa0(%rbp)
    2647:	48 8b bd 60 ff ff ff 	mov    -0xa0(%rbp),%rdi
    264e:	e8 00 00 00 00       	call   2653 <main+0x22d>
			264f: R_X86_64_PLT32	io_println-0x4
    2653:	48 8d 05 00 00 00 00 	lea    0x0(%rip),%rax        # 265a <main+0x234>
			2656: R_X86_64_PC32	.str.23-0x4
    265a:	48 89 85 58 ff ff ff 	mov    %rax,-0xa8(%rbp)
    2661:	48 8b bd 58 ff ff ff 	mov    -0xa8(%rbp),%rdi
    2668:	e8 00 00 00 00       	call   266d <main+0x247>
			2669: R_X86_64_PLT32	io_println-0x4
    266d:	48 8d 05 00 00 00 00 	lea    0x0(%rip),%rax        # 2674 <main+0x24e>
			2670: R_X86_64_PC32	.str.24-0x4
    2674:	48 89 85 50 ff ff ff 	mov    %rax,-0xb0(%rbp)
    267b:	48 8b bd 50 ff ff ff 	mov    -0xb0(%rbp),%rdi
    2682:	48 be ff 00 00 00 00 	movabs $0xff,%rsi
    2689:	00 00 00 
    268c:	e8 00 00 00 00       	call   2691 <main+0x26b>
			268d: R_X86_64_PLT32	io_printf-0x4
    2691:	48 8d 05 00 00 00 00 	lea    0x0(%rip),%rax        # 2698 <main+0x272>
			2694: R_X86_64_PC32	.str.25-0x4
    2698:	48 89 85 48 ff ff ff 	mov    %rax,-0xb8(%rbp)
    269f:	48 8b bd 48 ff ff ff 	mov    -0xb8(%rbp),%rdi
    26a6:	e8 00 00 00 00       	call   26ab <main+0x285>
			26a7: R_X86_64_PLT32	io_println-0x4
    26ab:	48 8d 05 00 00 00 00 	lea    0x0(%rip),%rax        # 26b2 <main+0x28c>
			26ae: R_X86_64_PC32	.str.26-0x4
    26b2:	48 89 85 40 ff ff ff 	mov    %rax,-0xc0(%rbp)
    26b9:	48 8b bd 40 ff ff ff 	mov    -0xc0(%rbp),%rdi
    26c0:	e8 00 00 00 00       	call   26c5 <main+0x29f>
			26c1: R_X86_64_PLT32	io_println-0x4
    26c5:	48 8d 05 00 00 00 00 	lea    0x0(%rip),%rax        # 26cc <main+0x2a6>
			26c8: R_X86_64_PC32	.str.27-0x4
    26cc:	48 89 85 38 ff ff ff 	mov    %rax,-0xc8(%rbp)
    26d3:	48 8b bd 38 ff ff ff 	mov    -0xc8(%rbp),%rdi
    26da:	48 be 58 00 00 00 00 	movabs $0x58,%rsi
    26e1:	00 00 00 
    26e4:	e8 00 00 00 00       	call   26e9 <main+0x2c3>
			26e5: R_X86_64_PLT32	io_printf-0x4
    26e9:	48 8d 05 00 00 00 00 	lea    0x0(%rip),%rax        # 26f0 <main+0x2ca>
			26ec: R_X86_64_PC32	.str.28-0x4
    26f0:	48 89 85 30 ff ff ff 	mov    %rax,-0xd0(%rbp)
    26f7:	48 8b bd 30 ff ff ff 	mov    -0xd0(%rbp),%rdi
    26fe:	e8 00 00 00 00       	call   2703 <main+0x2dd>
			26ff: R_X86_64_PLT32	io_println-0x4
    2703:	48 8d 05 00 00 00 00 	lea    0x0(%rip),%rax        # 270a <main+0x2e4>
			2706: R_X86_64_PC32	.str.29-0x4
    270a:	48 89 85 28 ff ff ff 	mov    %rax,-0xd8(%rbp)
    2711:	48 8b bd 28 ff ff ff 	mov    -0xd8(%rbp),%rdi
    2718:	e8 00 00 00 00       	call   271d <main+0x2f7>
			2719: R_X86_64_PLT32	io_println-0x4
    271d:	48 8d 05 00 00 00 00 	lea    0x0(%rip),%rax        # 2724 <main+0x2fe>
			2720: R_X86_64_PC32	.str.30-0x4
    2724:	48 89 85 20 ff ff ff 	mov    %rax,-0xe0(%rbp)
    272b:	48 8d 05 00 00 00 00 	lea    0x0(%rip),%rax        # 2732 <main+0x30c>
			272e: R_X86_64_PC32	.str.31-0x4
    2732:	48 89 85 18 ff ff ff 	mov    %rax,-0xe8(%rbp)
    2739:	48 8b bd 20 ff ff ff 	mov    -0xe0(%rbp),%rdi
    2740:	48 8b b5 18 ff ff ff 	mov    -0xe8(%rbp),%rsi
    2747:	e8 00 00 00 00       	call   274c <main+0x326>
			2748: R_X86_64_PLT32	io_printf-0x4
    274c:	48 8d 05 00 00 00 00 	lea    0x0(%rip),%rax        # 2753 <main+0x32d>
			274f: R_X86_64_PC32	.str.32-0x4
    2753:	48 89 85 10 ff ff ff 	mov    %rax,-0xf0(%rbp)
    275a:	48 8b bd 10 ff ff ff 	mov    -0xf0(%rbp),%rdi
    2761:	e8 00 00 00 00       	call   2766 <main+0x340>
			2762: R_X86_64_PLT32	io_println-0x4
    2766:	48 8d 05 00 00 00 00 	lea    0x0(%rip),%rax        # 276d <main+0x347>
			2769: R_X86_64_PC32	.str.33-0x4
    276d:	48 89 85 08 ff ff ff 	mov    %rax,-0xf8(%rbp)
    2774:	48 8b bd 08 ff ff ff 	mov    -0xf8(%rbp),%rdi
    277b:	e8 00 00 00 00       	call   2780 <main+0x35a>
			277c: R_X86_64_PLT32	io_println-0x4
    2780:	48 b8 7b 00 00 00 00 	movabs $0x7b,%rax
    2787:	00 00 00 
    278a:	89 85 00 ff ff ff    	mov    %eax,-0x100(%rbp)
    2790:	48 8d 85 40 fe ff ff 	lea    -0x1c0(%rbp),%rax
    2797:	48 89 85 f8 fe ff ff 	mov    %rax,-0x108(%rbp)
    279e:	8b 85 00 ff ff ff    	mov    -0x100(%rbp),%eax
    27a4:	48 8b 8d f8 fe ff ff 	mov    -0x108(%rbp),%rcx
    27ab:	89 01                	mov    %eax,(%rcx)
    27ad:	48 8d 05 00 00 00 00 	lea    0x0(%rip),%rax        # 27b4 <main+0x38e>
			27b0: R_X86_64_PC32	.str.34-0x4
    27b4:	48 89 85 f0 fe ff ff 	mov    %rax,-0x110(%rbp)
    27bb:	48 8b bd f0 fe ff ff 	mov    -0x110(%rbp),%rdi
    27c2:	48 8b b5 f8 fe ff ff 	mov    -0x108(%rbp),%rsi
    27c9:	e8 00 00 00 00       	call   27ce <main+0x3a8>
			27ca: R_X86_64_PLT32	io_printf-0x4
    27ce:	48 8d 05 00 00 00 00 	lea    0x0(%rip),%rax        # 27d5 <main+0x3af>
			27d1: R_X86_64_PC32	.str.35-0x4
    27d5:	48 89 85 e8 fe ff ff 	mov    %rax,-0x118(%rbp)
    27dc:	48 8b bd e8 fe ff ff 	mov    -0x118(%rbp),%rdi
    27e3:	e8 00 00 00 00       	call   27e8 <main+0x3c2>
			27e4: R_X86_64_PLT32	io_println-0x4
    27e8:	48 8d 05 00 00 00 00 	lea    0x0(%rip),%rax        # 27ef <main+0x3c9>
			27eb: R_X86_64_PC32	.str.36-0x4
    27ef:	48 89 85 e0 fe ff ff 	mov    %rax,-0x120(%rbp)
    27f6:	48 8b bd e0 fe ff ff 	mov    -0x120(%rbp),%rdi
    27fd:	e8 00 00 00 00       	call   2802 <main+0x3dc>
			27fe: R_X86_64_PLT32	io_println-0x4
    2802:	48 8d 05 00 00 00 00 	lea    0x0(%rip),%rax        # 2809 <main+0x3e3>
			2805: R_X86_64_PC32	.str.37-0x4
    2809:	48 89 85 d8 fe ff ff 	mov    %rax,-0x128(%rbp)
    2810:	48 8d 05 00 00 00 00 	lea    0x0(%rip),%rax        # 2817 <main+0x3f1>
			2813: R_X86_64_PC32	.str.38-0x4
    2817:	48 89 85 d0 fe ff ff 	mov    %rax,-0x130(%rbp)
    281e:	48 8b bd d8 fe ff ff 	mov    -0x128(%rbp),%rdi
    2825:	48 8b b5 d0 fe ff ff 	mov    -0x130(%rbp),%rsi
    282c:	48 ba 63 00 00 00 00 	movabs $0x63,%rdx
    2833:	00 00 00 
    2836:	48 b9 5a 00 00 00 00 	movabs $0x5a,%rcx
    283d:	00 00 00 
    2840:	49 b8 ff 00 00 00 00 	movabs $0xff,%r8
    2847:	00 00 00 
    284a:	e8 00 00 00 00       	call   284f <main+0x429>
			284b: R_X86_64_PLT32	io_printf-0x4
    284f:	48 8d 05 00 00 00 00 	lea    0x0(%rip),%rax        # 2856 <main+0x430>
			2852: R_X86_64_PC32	.str.39-0x4
    2856:	48 89 85 c8 fe ff ff 	mov    %rax,-0x138(%rbp)
    285d:	48 8b bd c8 fe ff ff 	mov    -0x138(%rbp),%rdi
    2864:	e8 00 00 00 00       	call   2869 <main+0x443>
			2865: R_X86_64_PLT32	io_println-0x4
    2869:	48 8d 05 00 00 00 00 	lea    0x0(%rip),%rax        # 2870 <main+0x44a>
			286c: R_X86_64_PC32	.str.40-0x4
    2870:	48 89 85 c0 fe ff ff 	mov    %rax,-0x140(%rbp)
    2877:	48 8b bd c0 fe ff ff 	mov    -0x140(%rbp),%rdi
    287e:	e8 00 00 00 00       	call   2883 <main+0x45d>
			287f: R_X86_64_PLT32	io_println-0x4
    2883:	48 8d 85 00 fe ff ff 	lea    -0x200(%rbp),%rax
    288a:	48 89 85 b8 fe ff ff 	mov    %rax,-0x148(%rbp)
    2891:	48 8d 85 f8 fd ff ff 	lea    -0x208(%rbp),%rax
    2898:	48 89 85 b0 fe ff ff 	mov    %rax,-0x150(%rbp)
    289f:	48 8b 85 b8 fe ff ff 	mov    -0x148(%rbp),%rax
    28a6:	48 8b 8d b0 fe ff ff 	mov    -0x150(%rbp),%rcx
    28ad:	48 89 01             	mov    %rax,(%rcx)
    28b0:	48 8b 85 b0 fe ff ff 	mov    -0x150(%rbp),%rax
    28b7:	48 8b 00             	mov    (%rax),%rax
    28ba:	48 89 85 a8 fe ff ff 	mov    %rax,-0x158(%rbp)
    28c1:	48 8b bd a8 fe ff ff 	mov    -0x158(%rbp),%rdi
    28c8:	48 be 2a 00 00 00 00 	movabs $0x2a,%rsi
    28cf:	00 00 00 
    28d2:	48 ba 0a 00 00 00 00 	movabs $0xa,%rdx
    28d9:	00 00 00 
    28dc:	e8 00 00 00 00       	call   28e1 <main+0x4bb>
			28dd: R_X86_64_PLT32	io_int_to_str-0x4
    28e1:	48 89 85 a0 fe ff ff 	mov    %rax,-0x160(%rbp)
    28e8:	48 8d 85 f0 fd ff ff 	lea    -0x210(%rbp),%rax
    28ef:	48 89 85 98 fe ff ff 	mov    %rax,-0x168(%rbp)
    28f6:	48 8b 85 a0 fe ff ff 	mov    -0x160(%rbp),%rax
    28fd:	48 8b 8d 98 fe ff ff 	mov    -0x168(%rbp),%rcx
    2904:	48 89 01             	mov    %rax,(%rcx)
    2907:	48 8d 05 00 00 00 00 	lea    0x0(%rip),%rax        # 290e <main+0x4e8>
			290a: R_X86_64_PC32	.str.41-0x4
    290e:	48 89 85 90 fe ff ff 	mov    %rax,-0x170(%rbp)
    2915:	48 8b bd 90 fe ff ff 	mov    -0x170(%rbp),%rdi
    291c:	e8 00 00 00 00       	call   2921 <main+0x4fb>
			291d: R_X86_64_PLT32	io_print-0x4
    2921:	48 8d 05 00 00 00 00 	lea    0x0(%rip),%rax        # 2928 <main+0x502>
			2924: R_X86_64_PC32	io_STDOUT-0x4
    2928:	48 8b 00             	mov    (%rax),%rax
    292b:	48 89 85 88 fe ff ff 	mov    %rax,-0x178(%rbp)
    2932:	48 8b 85 88 fe ff ff 	mov    -0x178(%rbp),%rax
    2939:	89 85 80 fe ff ff    	mov    %eax,-0x180(%rbp)
    293f:	48 8b 85 b0 fe ff ff 	mov    -0x150(%rbp),%rax
    2946:	48 8b 00             	mov    (%rax),%rax
    2949:	48 89 85 78 fe ff ff 	mov    %rax,-0x188(%rbp)
    2950:	48 8b 85 98 fe ff ff 	mov    -0x168(%rbp),%rax
    2957:	48 8b 00             	mov    (%rax),%rax
    295a:	48 89 85 70 fe ff ff 	mov    %rax,-0x190(%rbp)
    2961:	8b bd 80 fe ff ff    	mov    -0x180(%rbp),%edi
    2967:	48 8b b5 78 fe ff ff 	mov    -0x188(%rbp),%rsi
    296e:	48 8b 95 70 fe ff ff 	mov    -0x190(%rbp),%rdx
    2975:	e8 00 00 00 00       	call   297a <main+0x554>
			2976: R_X86_64_PLT32	io_write-0x4
    297a:	48 89 85 68 fe ff ff 	mov    %rax,-0x198(%rbp)
    2981:	48 8d 05 00 00 00 00 	lea    0x0(%rip),%rax        # 2988 <main+0x562>
			2984: R_X86_64_PC32	.str.42-0x4
    2988:	48 89 85 60 fe ff ff 	mov    %rax,-0x1a0(%rbp)
    298f:	48 8b bd 60 fe ff ff 	mov    -0x1a0(%rbp),%rdi
    2996:	e8 00 00 00 00       	call   299b <main+0x575>
			2997: R_X86_64_PLT32	io_println-0x4
    299b:	48 8d 05 00 00 00 00 	lea    0x0(%rip),%rax        # 29a2 <main+0x57c>
			299e: R_X86_64_PC32	.str.43-0x4
    29a2:	48 89 85 58 fe ff ff 	mov    %rax,-0x1a8(%rbp)
    29a9:	48 8b bd 58 fe ff ff 	mov    -0x1a8(%rbp),%rdi
    29b0:	e8 00 00 00 00       	call   29b5 <main+0x58f>
			29b1: R_X86_64_PLT32	io_println-0x4
    29b5:	48 31 c0             	xor    %rax,%rax
    29b8:	89 85 50 fe ff ff    	mov    %eax,-0x1b0(%rbp)
    29be:	8b 85 50 fe ff ff    	mov    -0x1b0(%rbp),%eax
    29c4:	c9                   	leave
    29c5:	c3                   	ret
